(lp0
(I347
I40
tp1
a(I303
I67
tp2
a(I332
I5
tp3
a(I359
I38
tp4
a(I298
I56
tp5
a(I310
I52
tp6
a(I337
I52
tp7
a(I316
I67
tp8
a(I316
I15
tp9
a(I300
I26
tp10
a.I11
.(lp0
(lp1
I0
aI0
aI0
aI0
aI0
aI0
aI0
aI0
aI0
aI0
aI0
aI0
aI0
aI0
aI0
aI0
aI0
aI0
aI0
aI0
aI0
aI0
aI0
aI0
aI0
aI0
aI0
aI0
aI0
aI0
aI0
aI0
aI0
aI0
aI0
aI0
aI0
aI0
aI0
aI0
aS'1'
p2
aI0
aI0
aI0
aI0
aI0
aI0
aI0
aI0
aI0
aI0
aI0
aI0
aI0
aI0
aI0
aI0
aI0
aI0
aI0
aI0
aI0
aI0
aI0
aI0
aI0
aI0
aI0
aI0
aI0
aI0
aI0
aI0
aI0
aI0
aI0
aI0
aI0
aI0
aI0
aI0
aa(lp3
I0
aI0
aI0
aI0
aI0
aI0
aI0
aI0
aI0
aI0
aI0
aI0
aI0
aI0
aI0
aI0
aI0
aI0
aI0
aI0
aI0
aI0
aI0
aI0
aI0
aI0
aI0
aI0
aI0
aI0
aI0
aI0
ag2
ag2
ag2
ag2
ag2
ag2
ag2
ag2
ag2
ag2
ag2
ag2
ag2
ag2
ag2
ag2
ag2
aI0
aI0
aI0
aI0
aI0
aI0
aI0
aI0
aI0
aI0
aI0
aI0
aI0
aI0
aI0
aI0
aI0
aI0
aI0
aI0
aI0
aI0
aI0
aI0
aI0
aI0
aI0
aI0
aI0
aI0
aI0
aI0
aa(lp4
I0
aI0
aI0
aI0
aI0
aI0
aI0
aI0
aI0
aI0
aI0
aI0
aI0
aI0
aI0
aI0
aI0
aI0
aI0
aI0
aI0
aI0
aI0
aI0
aI0
aI0
aI0
aI0
ag2
ag2
ag2
ag2
ag2
ag2
ag2
ag2
ag2
ag2
ag2
ag2
ag2
ag2
ag2
ag2
ag2
ag2
ag2
ag2
ag2
ag2
ag2
ag2
ag2
aI0
aI0
aI0
aI0
aI0
aI0
aI0
aI0
aI0
aI0
aI0
aI0
aI0
aI0
aI0
aI0
aI0
aI0
aI0
aI0
aI0
aI0
aI0
aI0
aI0
aI0
aI0
aI0
aa(lp5
I0
aI0
aI0
aI0
aI0
aI0
aI0
aI0
aI0
aI0
aI0
aI0
aI0
aI0
aI0
aI0
aI0
aI0
aI0
aI0
aI0
aI0
aI0
aI0
aI0
ag2
ag2
ag2
ag2
ag2
ag2
ag2
ag2
ag2
ag2
ag2
ag2
ag2
ag2
ag2
ag2
ag2
ag2
ag2
ag2
ag2
ag2
ag2
ag2
ag2
ag2
ag2
ag2
ag2
ag2
ag2
aI0
aI0
aI0
aI0
aI0
aI0
aI0
aI0
aI0
aI0
aI0
aI0
aI0
aI0
aI0
aI0
aI0
aI0
aI0
aI0
aI0
aI0
aI0
aI0
aI0
aa(lp6
I0
aI0
aI0
aI0
aI0
aI0
aI0
aI0
aI0
aI0
aI0
aI0
aI0
aI0
aI0
aI0
aI0
aI0
aI0
aI0
aI0
aI0
aI0
ag2
ag2
ag2
ag2
ag2
ag2
ag2
ag2
ag2
ag2
ag2
ag2
ag2
ag2
ag2
ag2
ag2
ag2
ag2
ag2
ag2
ag2
ag2
ag2
ag2
ag2
ag2
ag2
ag2
ag2
ag2
ag2
ag2
ag2
ag2
aI0
aI0
aI0
aI0
aI0
aI0
aI0
aI0
aI0
aI0
aI0
aI0
aI0
aI0
aI0
aI0
aI0
aI0
aI0
aI0
aI0
aI0
aI0
aa(lp7
I0
aI0
aI0
aI0
aI0
aI0
aI0
aI0
aI0
aI0
aI0
aI0
aI0
aI0
aI0
aI0
aI0
aI0
aI0
aI0
aI0
ag2
ag2
ag2
ag2
ag2
ag2
ag2
ag2
ag2
ag2
ag2
ag2
ag2
ag2
ag2
ag2
ag2
ag2
ag2
ag2
ag2
ag2
ag2
ag2
ag2
ag2
ag2
ag2
ag2
ag2
ag2
ag2
ag2
ag2
ag2
ag2
ag2
ag2
ag2
aI0
aI0
aI0
aI0
aI0
aI0
aI0
aI0
aI0
aI0
aI0
aI0
aI0
aI0
aI0
aI0
aI0
aI0
aI0
aI0
aI0
aa(lp8
I0
aI0
aI0
aI0
aI0
aI0
aI0
aI0
aI0
aI0
aI0
aI0
aI0
aI0
aI0
aI0
aI0
aI0
aI0
ag2
ag2
ag2
ag2
ag2
ag2
ag2
ag2
ag2
ag2
ag2
ag2
ag2
ag2
ag2
ag2
ag2
ag2
ag2
ag2
ag2
ag2
ag2
ag2
ag2
ag2
ag2
ag2
ag2
ag2
ag2
ag2
ag2
ag2
ag2
ag2
ag2
ag2
ag2
ag2
ag2
ag2
ag2
aI0
aI0
aI0
aI0
aI0
aI0
aI0
aI0
aI0
aI0
aI0
aI0
aI0
aI0
aI0
aI0
aI0
aI0
aI0
aa(lp9
I0
aI0
aI0
aI0
aI0
aI0
aI0
aI0
aI0
aI0
aI0
aI0
aI0
aI0
aI0
aI0
aI0
aI0
ag2
ag2
ag2
ag2
ag2
ag2
ag2
ag2
ag2
ag2
ag2
ag2
ag2
ag2
ag2
ag2
ag2
ag2
ag2
ag2
ag2
ag2
ag2
ag2
ag2
ag2
ag2
ag2
ag2
ag2
ag2
ag2
ag2
ag2
ag2
ag2
ag2
ag2
ag2
ag2
ag2
ag2
ag2
ag2
ag2
aI0
aI0
aI0
aI0
aI0
aI0
aI0
aI0
aI0
aI0
aI0
aI0
aI0
aI0
aI0
aI0
aI0
aI0
aa(lp10
I0
aI0
aI0
aI0
aI0
aI0
aI0
aI0
aI0
aI0
aI0
aI0
aI0
aI0
aI0
aI0
ag2
ag2
ag2
ag2
ag2
ag2
ag2
ag2
ag2
ag2
ag2
ag2
ag2
ag2
ag2
ag2
ag2
ag2
ag2
ag2
ag2
ag2
ag2
ag2
ag2
ag2
ag2
ag2
ag2
ag2
ag2
ag2
ag2
ag2
ag2
ag2
ag2
ag2
ag2
ag2
ag2
ag2
ag2
ag2
ag2
ag2
ag2
ag2
ag2
aI0
aI0
aI0
aI0
aI0
aI0
aI0
aI0
aI0
aI0
aI0
aI0
aI0
aI0
aI0
aI0
aa(lp11
I0
aI0
aI0
aI0
aI0
aI0
aI0
aI0
aI0
aI0
aI0
aI0
aI0
aI0
aI0
ag2
ag2
ag2
ag2
ag2
ag2
ag2
ag2
ag2
ag2
ag2
ag2
ag2
ag2
ag2
ag2
ag2
ag2
ag2
ag2
ag2
ag2
ag2
ag2
ag2
ag2
ag2
ag2
ag2
ag2
ag2
ag2
ag2
ag2
ag2
ag2
ag2
ag2
ag2
ag2
ag2
ag2
ag2
ag2
ag2
ag2
ag2
ag2
ag2
ag2
ag2
aI0
aI0
aI0
aI0
aI0
aI0
aI0
aI0
aI0
aI0
aI0
aI0
aI0
aI0
aI0
aa(lp12
I0
aI0
aI0
aI0
aI0
aI0
aI0
aI0
aI0
aI0
aI0
aI0
aI0
aI0
ag2
ag2
ag2
ag2
ag2
ag2
ag2
ag2
ag2
ag2
ag2
ag2
ag2
ag2
ag2
ag2
ag2
ag2
ag2
ag2
ag2
ag2
ag2
ag2
ag2
ag2
ag2
ag2
ag2
ag2
ag2
ag2
ag2
ag2
ag2
ag2
ag2
ag2
ag2
ag2
ag2
ag2
ag2
ag2
ag2
ag2
ag2
ag2
ag2
ag2
ag2
ag2
ag2
aI0
aI0
aI0
aI0
aI0
aI0
aI0
aI0
aI0
aI0
aI0
aI0
aI0
aI0
aa(lp13
I0
aI0
aI0
aI0
aI0
aI0
aI0
aI0
aI0
aI0
aI0
aI0
aI0
ag2
ag2
ag2
ag2
ag2
ag2
ag2
ag2
ag2
ag2
ag2
ag2
ag2
ag2
ag2
ag2
ag2
ag2
ag2
ag2
ag2
ag2
ag2
ag2
ag2
ag2
ag2
ag2
ag2
ag2
ag2
ag2
ag2
ag2
ag2
ag2
ag2
ag2
ag2
ag2
ag2
ag2
ag2
ag2
ag2
ag2
ag2
ag2
ag2
ag2
ag2
ag2
ag2
ag2
ag2
aI0
aI0
aI0
aI0
aI0
aI0
aI0
aI0
aI0
aI0
aI0
aI0
aI0
aa(lp14
I0
aI0
aI0
aI0
aI0
aI0
aI0
aI0
aI0
aI0
aI0
aI0
ag2
ag2
ag2
ag2
ag2
ag2
ag2
ag2
ag2
ag2
ag2
ag2
ag2
ag2
ag2
ag2
ag2
ag2
ag2
ag2
ag2
ag2
ag2
ag2
ag2
ag2
ag2
ag2
ag2
ag2
ag2
ag2
ag2
ag2
ag2
ag2
ag2
ag2
ag2
ag2
ag2
ag2
ag2
ag2
ag2
ag2
ag2
ag2
ag2
ag2
ag2
ag2
ag2
ag2
ag2
ag2
ag2
aI0
aI0
aI0
aI0
aI0
aI0
aI0
aI0
aI0
aI0
aI0
aI0
aa(lp15
I0
aI0
aI0
aI0
aI0
aI0
aI0
aI0
aI0
aI0
aI0
ag2
ag2
ag2
ag2
ag2
ag2
ag2
ag2
ag2
ag2
ag2
ag2
ag2
ag2
ag2
ag2
ag2
ag2
ag2
ag2
ag2
ag2
ag2
ag2
ag2
ag2
ag2
ag2
ag2
ag2
ag2
ag2
ag2
ag2
ag2
ag2
ag2
ag2
ag2
ag2
ag2
ag2
ag2
ag2
ag2
ag2
ag2
ag2
ag2
ag2
ag2
ag2
ag2
ag2
ag2
ag2
ag2
ag2
ag2
aI0
aI0
aI0
aI0
aI0
aI0
aI0
aI0
aI0
aI0
aI0
aa(lp16
I0
aI0
aI0
aI0
aI0
aI0
aI0
aI0
aI0
aI0
ag2
ag2
ag2
ag2
ag2
ag2
ag2
ag2
ag2
ag2
ag2
ag2
ag2
ag2
ag2
ag2
ag2
ag2
ag2
ag2
ag2
ag2
ag2
ag2
ag2
ag2
ag2
ag2
ag2
ag2
ag2
ag2
ag2
ag2
ag2
ag2
ag2
ag2
ag2
ag2
ag2
ag2
ag2
ag2
ag2
ag2
ag2
ag2
ag2
ag2
ag2
ag2
ag2
ag2
ag2
ag2
ag2
ag2
ag2
ag2
ag2
aI0
aI0
aI0
aI0
aI0
aI0
aI0
aI0
aI0
aI0
aa(lp17
I0
aI0
aI0
aI0
aI0
aI0
aI0
aI0
aI0
ag2
ag2
ag2
ag2
ag2
ag2
ag2
ag2
ag2
ag2
ag2
ag2
ag2
ag2
ag2
ag2
ag2
ag2
ag2
ag2
ag2
ag2
ag2
ag2
ag2
ag2
ag2
ag2
ag2
ag2
ag2
ag2
ag2
ag2
ag2
ag2
ag2
ag2
ag2
ag2
ag2
ag2
ag2
ag2
ag2
ag2
ag2
ag2
ag2
ag2
ag2
ag2
ag2
ag2
ag2
ag2
ag2
ag2
ag2
ag2
ag2
ag2
ag2
aI0
aI0
aI0
aI0
aI0
aI0
aI0
aI0
aI0
aa(lp18
I0
aI0
aI0
aI0
aI0
aI0
aI0
aI0
ag2
ag2
ag2
ag2
ag2
ag2
ag2
ag2
ag2
ag2
ag2
ag2
ag2
ag2
ag2
ag2
ag2
ag2
ag2
ag2
ag2
ag2
ag2
ag2
ag2
ag2
ag2
ag2
ag2
ag2
ag2
ag2
ag2
ag2
ag2
ag2
ag2
ag2
ag2
ag2
ag2
ag2
ag2
ag2
ag2
ag2
ag2
ag2
ag2
ag2
ag2
ag2
ag2
ag2
ag2
ag2
ag2
ag2
ag2
ag2
ag2
ag2
ag2
ag2
ag2
aI0
aI0
aI0
aI0
aI0
aI0
aI0
aI0
aa(lp19
I0
aI0
aI0
aI0
aI0
aI0
aI0
aI0
ag2
ag2
ag2
ag2
ag2
ag2
ag2
ag2
ag2
ag2
ag2
ag2
ag2
ag2
ag2
ag2
ag2
ag2
ag2
ag2
ag2
ag2
ag2
ag2
ag2
ag2
ag2
ag2
ag2
ag2
ag2
ag2
ag2
ag2
ag2
ag2
ag2
ag2
ag2
ag2
ag2
ag2
ag2
ag2
ag2
ag2
ag2
ag2
ag2
ag2
ag2
ag2
ag2
ag2
ag2
ag2
ag2
ag2
ag2
ag2
ag2
ag2
ag2
ag2
ag2
aI0
aI0
aI0
aI0
aI0
aI0
aI0
aI0
aa(lp20
I0
aI0
aI0
aI0
aI0
aI0
aI0
ag2
ag2
ag2
ag2
ag2
ag2
ag2
ag2
ag2
ag2
ag2
ag2
ag2
ag2
ag2
ag2
ag2
ag2
ag2
ag2
ag2
ag2
ag2
ag2
ag2
ag2
ag2
ag2
ag2
ag2
ag2
ag2
ag2
ag2
ag2
ag2
ag2
ag2
ag2
ag2
ag2
ag2
ag2
ag2
ag2
ag2
ag2
ag2
ag2
ag2
ag2
ag2
ag2
ag2
ag2
ag2
ag2
ag2
ag2
ag2
ag2
ag2
ag2
ag2
ag2
ag2
ag2
aI0
aI0
aI0
aI0
aI0
aI0
aI0
aa(lp21
I0
aI0
aI0
aI0
aI0
aI0
ag2
ag2
ag2
ag2
ag2
ag2
ag2
ag2
ag2
ag2
ag2
ag2
ag2
ag2
ag2
ag2
ag2
ag2
ag2
ag2
ag2
ag2
ag2
ag2
ag2
ag2
ag2
ag2
ag2
ag2
ag2
ag2
ag2
ag2
ag2
ag2
ag2
ag2
ag2
ag2
ag2
ag2
ag2
ag2
ag2
ag2
ag2
ag2
ag2
ag2
ag2
ag2
ag2
ag2
ag2
ag2
ag2
ag2
ag2
ag2
ag2
ag2
ag2
ag2
ag2
ag2
ag2
ag2
ag2
aI0
aI0
aI0
aI0
aI0
aI0
aa(lp22
I0
aI0
aI0
aI0
aI0
aI0
ag2
ag2
ag2
ag2
ag2
ag2
ag2
ag2
ag2
ag2
ag2
ag2
ag2
ag2
ag2
ag2
ag2
ag2
ag2
ag2
ag2
ag2
ag2
ag2
ag2
ag2
ag2
ag2
ag2
ag2
ag2
ag2
ag2
ag2
ag2
ag2
ag2
ag2
ag2
ag2
ag2
ag2
ag2
ag2
ag2
ag2
ag2
ag2
ag2
ag2
ag2
ag2
ag2
ag2
ag2
ag2
ag2
ag2
ag2
ag2
ag2
ag2
ag2
ag2
ag2
ag2
ag2
ag2
ag2
aI0
aI0
aI0
aI0
aI0
aI0
aa(lp23
I0
aI0
aI0
aI0
aI0
ag2
ag2
ag2
ag2
ag2
ag2
ag2
ag2
ag2
ag2
ag2
ag2
ag2
ag2
ag2
ag2
ag2
ag2
ag2
ag2
ag2
ag2
ag2
ag2
ag2
ag2
ag2
ag2
ag2
ag2
ag2
ag2
ag2
ag2
ag2
ag2
ag2
ag2
ag2
ag2
ag2
ag2
ag2
ag2
ag2
ag2
ag2
ag2
ag2
ag2
ag2
ag2
ag2
ag2
ag2
ag2
ag2
ag2
ag2
ag2
ag2
ag2
ag2
ag2
ag2
ag2
ag2
ag2
ag2
ag2
ag2
aI0
aI0
aI0
aI0
aI0
aa(lp24
I0
aI0
aI0
aI0
aI0
ag2
ag2
ag2
ag2
ag2
ag2
ag2
ag2
ag2
ag2
ag2
ag2
ag2
ag2
ag2
ag2
ag2
ag2
ag2
ag2
ag2
ag2
ag2
ag2
ag2
ag2
ag2
ag2
ag2
ag2
ag2
ag2
ag2
ag2
ag2
ag2
ag2
ag2
ag2
ag2
ag2
ag2
ag2
ag2
ag2
ag2
ag2
ag2
ag2
ag2
ag2
ag2
ag2
ag2
ag2
ag2
ag2
ag2
ag2
ag2
ag2
ag2
ag2
ag2
ag2
ag2
ag2
ag2
ag2
ag2
ag2
aI0
aI0
aI0
aI0
aI0
aa(lp25
I0
aI0
aI0
aI0
ag2
ag2
ag2
ag2
ag2
ag2
ag2
ag2
ag2
ag2
ag2
ag2
ag2
ag2
ag2
ag2
ag2
ag2
ag2
ag2
ag2
ag2
ag2
ag2
ag2
ag2
ag2
ag2
ag2
ag2
ag2
ag2
ag2
ag2
ag2
ag2
ag2
ag2
ag2
ag2
ag2
ag2
ag2
ag2
ag2
ag2
ag2
ag2
ag2
ag2
ag2
ag2
ag2
ag2
ag2
ag2
ag2
ag2
ag2
ag2
ag2
ag2
ag2
ag2
ag2
ag2
ag2
ag2
ag2
ag2
ag2
ag2
ag2
aI0
aI0
aI0
aI0
aa(lp26
I0
aI0
aI0
aI0
ag2
ag2
ag2
ag2
ag2
ag2
ag2
ag2
ag2
ag2
ag2
ag2
ag2
ag2
ag2
ag2
ag2
ag2
ag2
ag2
ag2
ag2
ag2
ag2
ag2
ag2
ag2
ag2
ag2
ag2
ag2
ag2
ag2
ag2
ag2
ag2
ag2
ag2
ag2
ag2
ag2
ag2
ag2
ag2
ag2
ag2
ag2
ag2
ag2
ag2
ag2
ag2
ag2
ag2
ag2
ag2
ag2
ag2
ag2
ag2
ag2
ag2
ag2
ag2
ag2
ag2
ag2
ag2
ag2
ag2
ag2
ag2
ag2
aI0
aI0
aI0
aI0
aa(lp27
I0
aI0
aI0
ag2
ag2
ag2
ag2
ag2
ag2
ag2
ag2
ag2
ag2
ag2
ag2
ag2
ag2
ag2
ag2
ag2
ag2
ag2
ag2
ag2
ag2
ag2
ag2
ag2
ag2
ag2
ag2
ag2
ag2
ag2
ag2
ag2
ag2
ag2
ag2
ag2
ag2
ag2
ag2
ag2
ag2
ag2
ag2
ag2
ag2
ag2
ag2
ag2
ag2
ag2
ag2
ag2
ag2
ag2
ag2
ag2
ag2
ag2
ag2
ag2
ag2
ag2
ag2
ag2
ag2
ag2
ag2
ag2
ag2
ag2
ag2
ag2
ag2
ag2
aI0
aI0
aI0
aa(lp28
I0
aI0
aI0
ag2
ag2
ag2
ag2
ag2
ag2
ag2
ag2
ag2
ag2
ag2
ag2
ag2
ag2
ag2
ag2
ag2
ag2
ag2
ag2
ag2
ag2
ag2
ag2
ag2
ag2
ag2
ag2
ag2
ag2
ag2
ag2
ag2
ag2
ag2
ag2
ag2
ag2
ag2
ag2
ag2
ag2
ag2
ag2
ag2
ag2
ag2
ag2
ag2
ag2
ag2
ag2
ag2
ag2
ag2
ag2
ag2
ag2
ag2
ag2
ag2
ag2
ag2
ag2
ag2
ag2
ag2
ag2
ag2
ag2
ag2
ag2
ag2
ag2
ag2
aI0
aI0
aI0
aa(lp29
I0
aI0
aI0
ag2
ag2
ag2
ag2
ag2
ag2
ag2
ag2
ag2
ag2
ag2
ag2
ag2
ag2
ag2
ag2
ag2
ag2
ag2
ag2
ag2
ag2
ag2
ag2
ag2
ag2
ag2
ag2
ag2
ag2
ag2
ag2
ag2
ag2
ag2
ag2
ag2
ag2
ag2
ag2
ag2
ag2
ag2
ag2
ag2
ag2
ag2
ag2
ag2
ag2
ag2
ag2
ag2
ag2
ag2
ag2
ag2
ag2
ag2
ag2
ag2
ag2
ag2
ag2
ag2
ag2
ag2
ag2
ag2
ag2
ag2
ag2
ag2
ag2
ag2
aI0
aI0
aI0
aa(lp30
I0
aI0
ag2
ag2
ag2
ag2
ag2
ag2
ag2
ag2
ag2
ag2
ag2
ag2
ag2
ag2
ag2
ag2
ag2
ag2
ag2
ag2
ag2
ag2
ag2
ag2
ag2
ag2
ag2
ag2
ag2
ag2
ag2
ag2
ag2
ag2
ag2
ag2
ag2
ag2
ag2
ag2
ag2
ag2
ag2
ag2
ag2
ag2
ag2
ag2
ag2
ag2
ag2
ag2
ag2
ag2
ag2
ag2
ag2
ag2
ag2
ag2
ag2
ag2
ag2
ag2
ag2
ag2
ag2
ag2
ag2
ag2
ag2
ag2
ag2
ag2
ag2
ag2
ag2
aI0
aI0
aa(lp31
I0
aI0
ag2
ag2
ag2
ag2
ag2
ag2
ag2
ag2
ag2
ag2
ag2
ag2
ag2
ag2
ag2
ag2
ag2
ag2
ag2
ag2
ag2
ag2
ag2
ag2
ag2
ag2
ag2
ag2
ag2
ag2
ag2
ag2
ag2
ag2
ag2
ag2
ag2
ag2
ag2
ag2
ag2
ag2
ag2
ag2
ag2
ag2
ag2
ag2
ag2
ag2
ag2
ag2
ag2
ag2
ag2
ag2
ag2
ag2
ag2
ag2
ag2
ag2
ag2
ag2
ag2
ag2
ag2
ag2
ag2
ag2
ag2
ag2
ag2
ag2
ag2
ag2
ag2
aI0
aI0
aa(lp32
I0
aI0
ag2
ag2
ag2
ag2
ag2
ag2
ag2
ag2
ag2
ag2
ag2
ag2
ag2
ag2
ag2
ag2
ag2
ag2
ag2
ag2
ag2
ag2
ag2
ag2
ag2
ag2
ag2
ag2
ag2
ag2
ag2
ag2
ag2
ag2
ag2
ag2
ag2
ag2
ag2
ag2
ag2
ag2
ag2
ag2
ag2
ag2
ag2
ag2
ag2
ag2
ag2
ag2
ag2
ag2
ag2
ag2
ag2
ag2
ag2
ag2
ag2
ag2
ag2
ag2
ag2
ag2
ag2
ag2
ag2
ag2
ag2
ag2
ag2
ag2
ag2
ag2
ag2
aI0
aI0
aa(lp33
I0
aI0
ag2
ag2
ag2
ag2
ag2
ag2
ag2
ag2
ag2
ag2
ag2
ag2
ag2
ag2
ag2
ag2
ag2
ag2
ag2
ag2
ag2
ag2
ag2
ag2
ag2
ag2
ag2
ag2
ag2
ag2
ag2
ag2
ag2
ag2
ag2
ag2
ag2
ag2
ag2
ag2
ag2
ag2
ag2
ag2
ag2
ag2
ag2
ag2
ag2
ag2
ag2
ag2
ag2
ag2
ag2
ag2
ag2
ag2
ag2
ag2
ag2
ag2
ag2
ag2
ag2
ag2
ag2
ag2
ag2
ag2
ag2
ag2
ag2
ag2
ag2
ag2
ag2
aI0
aI0
aa(lp34
I0
ag2
ag2
ag2
ag2
ag2
ag2
ag2
ag2
ag2
ag2
ag2
ag2
ag2
ag2
ag2
ag2
ag2
ag2
ag2
ag2
ag2
ag2
ag2
ag2
ag2
ag2
ag2
ag2
ag2
ag2
ag2
ag2
ag2
ag2
ag2
ag2
ag2
ag2
ag2
ag2
ag2
ag2
ag2
ag2
ag2
ag2
ag2
ag2
ag2
ag2
ag2
ag2
ag2
ag2
ag2
ag2
ag2
ag2
ag2
ag2
ag2
ag2
ag2
ag2
ag2
ag2
ag2
ag2
ag2
ag2
ag2
ag2
ag2
ag2
ag2
ag2
ag2
ag2
ag2
aI0
aa(lp35
I0
ag2
ag2
ag2
ag2
ag2
ag2
ag2
ag2
ag2
ag2
ag2
ag2
ag2
ag2
ag2
ag2
ag2
ag2
ag2
ag2
ag2
ag2
ag2
ag2
ag2
ag2
ag2
ag2
ag2
ag2
ag2
ag2
ag2
ag2
ag2
ag2
ag2
ag2
ag2
ag2
ag2
ag2
ag2
ag2
ag2
ag2
ag2
ag2
ag2
ag2
ag2
ag2
ag2
ag2
ag2
ag2
ag2
ag2
ag2
ag2
ag2
ag2
ag2
ag2
ag2
ag2
ag2
ag2
ag2
ag2
ag2
ag2
ag2
ag2
ag2
ag2
ag2
ag2
ag2
aI0
aa(lp36
I0
ag2
ag2
ag2
ag2
ag2
ag2
ag2
ag2
ag2
ag2
ag2
ag2
ag2
ag2
ag2
ag2
ag2
ag2
ag2
ag2
ag2
ag2
ag2
ag2
ag2
ag2
ag2
ag2
ag2
ag2
ag2
ag2
ag2
ag2
ag2
ag2
ag2
ag2
ag2
ag2
ag2
ag2
ag2
ag2
ag2
ag2
ag2
ag2
ag2
ag2
ag2
ag2
ag2
ag2
ag2
ag2
ag2
ag2
ag2
ag2
ag2
ag2
ag2
ag2
ag2
ag2
ag2
ag2
ag2
ag2
ag2
ag2
ag2
ag2
ag2
ag2
ag2
ag2
ag2
aI0
aa(lp37
I0
ag2
ag2
ag2
ag2
ag2
ag2
ag2
ag2
ag2
ag2
ag2
ag2
ag2
ag2
ag2
ag2
ag2
ag2
ag2
ag2
ag2
ag2
ag2
ag2
ag2
ag2
ag2
ag2
ag2
ag2
ag2
ag2
ag2
ag2
ag2
ag2
ag2
ag2
ag2
ag2
ag2
ag2
ag2
ag2
ag2
ag2
ag2
ag2
ag2
ag2
ag2
ag2
ag2
ag2
ag2
ag2
ag2
ag2
ag2
ag2
ag2
ag2
ag2
ag2
ag2
ag2
ag2
ag2
ag2
ag2
ag2
ag2
ag2
ag2
ag2
ag2
ag2
ag2
ag2
aI0
aa(lp38
I0
ag2
ag2
ag2
ag2
ag2
ag2
ag2
ag2
ag2
ag2
ag2
ag2
ag2
ag2
ag2
ag2
ag2
ag2
ag2
ag2
ag2
ag2
ag2
ag2
ag2
ag2
ag2
ag2
ag2
ag2
ag2
ag2
ag2
ag2
ag2
ag2
ag2
ag2
ag2
ag2
ag2
ag2
ag2
ag2
ag2
ag2
ag2
ag2
ag2
ag2
ag2
ag2
ag2
ag2
ag2
ag2
ag2
ag2
ag2
ag2
ag2
ag2
ag2
ag2
ag2
ag2
ag2
ag2
ag2
ag2
ag2
ag2
ag2
ag2
ag2
ag2
ag2
ag2
ag2
aI0
aa(lp39
I0
ag2
ag2
ag2
ag2
ag2
ag2
ag2
ag2
ag2
ag2
ag2
ag2
ag2
ag2
ag2
ag2
ag2
ag2
ag2
ag2
ag2
ag2
ag2
ag2
ag2
ag2
ag2
ag2
ag2
ag2
ag2
ag2
ag2
ag2
ag2
ag2
ag2
ag2
ag2
ag2
ag2
ag2
ag2
ag2
ag2
ag2
ag2
ag2
ag2
ag2
ag2
ag2
ag2
ag2
ag2
ag2
ag2
ag2
ag2
ag2
ag2
ag2
ag2
ag2
ag2
ag2
ag2
ag2
ag2
ag2
ag2
ag2
ag2
ag2
ag2
ag2
ag2
ag2
ag2
aI0
aa(lp40
I0
ag2
ag2
ag2
ag2
ag2
ag2
ag2
ag2
ag2
ag2
ag2
ag2
ag2
ag2
ag2
ag2
ag2
ag2
ag2
ag2
ag2
ag2
ag2
ag2
ag2
ag2
ag2
ag2
ag2
ag2
ag2
ag2
ag2
ag2
ag2
ag2
ag2
ag2
ag2
ag2
ag2
ag2
ag2
ag2
ag2
ag2
ag2
ag2
ag2
ag2
ag2
ag2
ag2
ag2
ag2
ag2
ag2
ag2
ag2
ag2
ag2
ag2
ag2
ag2
ag2
ag2
ag2
ag2
ag2
ag2
ag2
ag2
ag2
ag2
ag2
ag2
ag2
ag2
ag2
aI0
aa(lp41
I0
ag2
ag2
ag2
ag2
ag2
ag2
ag2
ag2
ag2
ag2
ag2
ag2
ag2
ag2
ag2
ag2
ag2
ag2
ag2
ag2
ag2
ag2
ag2
ag2
ag2
ag2
ag2
ag2
ag2
ag2
ag2
ag2
ag2
ag2
ag2
ag2
ag2
ag2
ag2
ag2
ag2
ag2
ag2
ag2
ag2
ag2
ag2
ag2
ag2
ag2
ag2
ag2
ag2
ag2
ag2
ag2
ag2
ag2
ag2
ag2
ag2
ag2
ag2
ag2
ag2
ag2
ag2
ag2
ag2
ag2
ag2
ag2
ag2
ag2
ag2
ag2
ag2
ag2
ag2
aI0
aa(lp42
g2
ag2
ag2
ag2
ag2
ag2
ag2
ag2
ag2
ag2
ag2
ag2
ag2
ag2
ag2
ag2
ag2
ag2
ag2
ag2
ag2
ag2
ag2
ag2
ag2
ag2
ag2
ag2
ag2
ag2
ag2
ag2
ag2
ag2
ag2
ag2
ag2
ag2
ag2
ag2
ag2
ag2
ag2
ag2
ag2
ag2
ag2
ag2
ag2
ag2
ag2
ag2
ag2
ag2
ag2
ag2
ag2
ag2
ag2
ag2
ag2
ag2
ag2
ag2
ag2
ag2
ag2
ag2
ag2
ag2
ag2
ag2
ag2
ag2
ag2
ag2
ag2
ag2
ag2
ag2
ag2
aa(lp43
I0
ag2
ag2
ag2
ag2
ag2
ag2
ag2
ag2
ag2
ag2
ag2
ag2
ag2
ag2
ag2
ag2
ag2
ag2
ag2
ag2
ag2
ag2
ag2
ag2
ag2
ag2
ag2
ag2
ag2
ag2
ag2
ag2
ag2
ag2
ag2
ag2
ag2
ag2
ag2
ag2
ag2
ag2
ag2
ag2
ag2
ag2
ag2
ag2
ag2
ag2
ag2
ag2
ag2
ag2
ag2
ag2
ag2
ag2
ag2
ag2
ag2
ag2
ag2
ag2
ag2
ag2
ag2
ag2
ag2
ag2
ag2
ag2
ag2
ag2
ag2
ag2
ag2
ag2
ag2
aI0
aa(lp44
I0
ag2
ag2
ag2
ag2
ag2
ag2
ag2
ag2
ag2
ag2
ag2
ag2
ag2
ag2
ag2
ag2
ag2
ag2
ag2
ag2
ag2
ag2
ag2
ag2
ag2
ag2
ag2
ag2
ag2
ag2
ag2
ag2
ag2
ag2
ag2
ag2
ag2
ag2
ag2
ag2
ag2
ag2
ag2
ag2
ag2
ag2
ag2
ag2
ag2
ag2
ag2
ag2
ag2
ag2
ag2
ag2
ag2
ag2
ag2
ag2
ag2
ag2
ag2
ag2
ag2
ag2
ag2
ag2
ag2
ag2
ag2
ag2
ag2
ag2
ag2
ag2
ag2
ag2
ag2
aI0
aa(lp45
I0
ag2
ag2
ag2
ag2
ag2
ag2
ag2
ag2
ag2
ag2
ag2
ag2
ag2
ag2
ag2
ag2
ag2
ag2
ag2
ag2
ag2
ag2
ag2
ag2
ag2
ag2
ag2
ag2
ag2
ag2
ag2
ag2
ag2
ag2
ag2
ag2
ag2
ag2
ag2
ag2
ag2
ag2
ag2
ag2
ag2
ag2
ag2
ag2
ag2
ag2
ag2
ag2
ag2
ag2
ag2
ag2
ag2
ag2
ag2
ag2
ag2
ag2
ag2
ag2
ag2
ag2
ag2
ag2
ag2
ag2
ag2
ag2
ag2
ag2
ag2
ag2
ag2
ag2
ag2
aI0
aa(lp46
I0
ag2
ag2
ag2
ag2
ag2
ag2
ag2
ag2
ag2
ag2
ag2
ag2
ag2
ag2
ag2
ag2
ag2
ag2
ag2
ag2
ag2
ag2
ag2
ag2
ag2
ag2
ag2
ag2
ag2
ag2
ag2
ag2
ag2
ag2
ag2
ag2
ag2
ag2
ag2
ag2
ag2
ag2
ag2
ag2
ag2
ag2
ag2
ag2
ag2
ag2
ag2
ag2
ag2
ag2
ag2
ag2
ag2
ag2
ag2
ag2
ag2
ag2
ag2
ag2
ag2
ag2
ag2
ag2
ag2
ag2
ag2
ag2
ag2
ag2
ag2
ag2
ag2
ag2
ag2
aI0
aa(lp47
I0
ag2
ag2
ag2
ag2
ag2
ag2
ag2
ag2
ag2
ag2
ag2
ag2
ag2
ag2
ag2
ag2
ag2
ag2
ag2
ag2
ag2
ag2
ag2
ag2
ag2
ag2
ag2
ag2
ag2
ag2
ag2
ag2
ag2
ag2
ag2
ag2
ag2
ag2
ag2
ag2
ag2
ag2
ag2
ag2
ag2
ag2
ag2
ag2
ag2
ag2
ag2
ag2
ag2
ag2
ag2
ag2
ag2
ag2
ag2
ag2
ag2
ag2
ag2
ag2
ag2
ag2
ag2
ag2
ag2
ag2
ag2
ag2
ag2
ag2
ag2
ag2
ag2
ag2
ag2
aI0
aa(lp48
I0
ag2
ag2
ag2
ag2
ag2
ag2
ag2
ag2
ag2
ag2
ag2
ag2
ag2
ag2
ag2
ag2
ag2
ag2
ag2
ag2
ag2
ag2
ag2
ag2
ag2
ag2
ag2
ag2
ag2
ag2
ag2
ag2
ag2
ag2
ag2
ag2
ag2
ag2
ag2
ag2
ag2
ag2
ag2
ag2
ag2
ag2
ag2
ag2
ag2
ag2
ag2
ag2
ag2
ag2
ag2
ag2
ag2
ag2
ag2
ag2
ag2
ag2
ag2
ag2
ag2
ag2
ag2
ag2
ag2
ag2
ag2
ag2
ag2
ag2
ag2
ag2
ag2
ag2
ag2
aI0
aa(lp49
I0
ag2
ag2
ag2
ag2
ag2
ag2
ag2
ag2
ag2
ag2
ag2
ag2
ag2
ag2
ag2
ag2
ag2
ag2
ag2
ag2
ag2
ag2
ag2
ag2
ag2
ag2
ag2
ag2
ag2
ag2
ag2
ag2
ag2
ag2
ag2
ag2
ag2
ag2
ag2
ag2
ag2
ag2
ag2
ag2
ag2
ag2
ag2
ag2
ag2
ag2
ag2
ag2
ag2
ag2
ag2
ag2
ag2
ag2
ag2
ag2
ag2
ag2
ag2
ag2
ag2
ag2
ag2
ag2
ag2
ag2
ag2
ag2
ag2
ag2
ag2
ag2
ag2
ag2
ag2
aI0
aa(lp50
I0
ag2
ag2
ag2
ag2
ag2
ag2
ag2
ag2
ag2
ag2
ag2
ag2
ag2
ag2
ag2
ag2
ag2
ag2
ag2
ag2
ag2
ag2
ag2
ag2
ag2
ag2
ag2
ag2
ag2
ag2
ag2
ag2
ag2
ag2
ag2
ag2
ag2
ag2
ag2
ag2
ag2
ag2
ag2
ag2
ag2
ag2
ag2
ag2
ag2
ag2
ag2
ag2
ag2
ag2
ag2
ag2
ag2
ag2
ag2
ag2
ag2
ag2
ag2
ag2
ag2
ag2
ag2
ag2
ag2
ag2
ag2
ag2
ag2
ag2
ag2
ag2
ag2
ag2
ag2
aI0
aa(lp51
I0
aI0
ag2
ag2
ag2
ag2
ag2
ag2
ag2
ag2
ag2
ag2
ag2
ag2
ag2
ag2
ag2
ag2
ag2
ag2
ag2
ag2
ag2
ag2
ag2
ag2
ag2
ag2
ag2
ag2
ag2
ag2
ag2
ag2
ag2
ag2
ag2
ag2
ag2
ag2
ag2
ag2
ag2
ag2
ag2
ag2
ag2
ag2
ag2
ag2
ag2
ag2
ag2
ag2
ag2
ag2
ag2
ag2
ag2
ag2
ag2
ag2
ag2
ag2
ag2
ag2
ag2
ag2
ag2
ag2
ag2
ag2
ag2
ag2
ag2
ag2
ag2
ag2
ag2
aI0
aI0
aa(lp52
I0
aI0
ag2
ag2
ag2
ag2
ag2
ag2
ag2
ag2
ag2
ag2
ag2
ag2
ag2
ag2
ag2
ag2
ag2
ag2
ag2
ag2
ag2
ag2
ag2
ag2
ag2
ag2
ag2
ag2
ag2
ag2
ag2
ag2
ag2
ag2
ag2
ag2
ag2
ag2
ag2
ag2
ag2
ag2
ag2
ag2
ag2
ag2
ag2
ag2
ag2
ag2
ag2
ag2
ag2
ag2
ag2
ag2
ag2
ag2
ag2
ag2
ag2
ag2
ag2
ag2
ag2
ag2
ag2
ag2
ag2
ag2
ag2
ag2
ag2
ag2
ag2
ag2
ag2
aI0
aI0
aa(lp53
I0
aI0
ag2
ag2
ag2
ag2
ag2
ag2
ag2
ag2
ag2
ag2
ag2
ag2
ag2
ag2
ag2
ag2
ag2
ag2
ag2
ag2
ag2
ag2
ag2
ag2
ag2
ag2
ag2
ag2
ag2
ag2
ag2
ag2
ag2
ag2
ag2
ag2
ag2
ag2
ag2
ag2
ag2
ag2
ag2
ag2
ag2
ag2
ag2
ag2
ag2
ag2
ag2
ag2
ag2
ag2
ag2
ag2
ag2
ag2
ag2
ag2
ag2
ag2
ag2
ag2
ag2
ag2
ag2
ag2
ag2
ag2
ag2
ag2
ag2
ag2
ag2
ag2
ag2
aI0
aI0
aa(lp54
I0
aI0
ag2
ag2
ag2
ag2
ag2
ag2
ag2
ag2
ag2
ag2
ag2
ag2
ag2
ag2
ag2
ag2
ag2
ag2
ag2
ag2
ag2
ag2
ag2
ag2
ag2
ag2
ag2
ag2
ag2
ag2
ag2
ag2
ag2
ag2
ag2
ag2
ag2
ag2
ag2
ag2
ag2
ag2
ag2
ag2
ag2
ag2
ag2
ag2
ag2
ag2
ag2
ag2
ag2
ag2
ag2
ag2
ag2
ag2
ag2
ag2
ag2
ag2
ag2
ag2
ag2
ag2
ag2
ag2
ag2
ag2
ag2
ag2
ag2
ag2
ag2
ag2
ag2
aI0
aI0
aa(lp55
I0
aI0
aI0
ag2
ag2
ag2
ag2
ag2
ag2
ag2
ag2
ag2
ag2
ag2
ag2
ag2
ag2
ag2
ag2
ag2
ag2
ag2
ag2
ag2
ag2
ag2
ag2
ag2
ag2
ag2
ag2
ag2
ag2
ag2
ag2
ag2
ag2
ag2
ag2
ag2
ag2
ag2
ag2
ag2
ag2
ag2
ag2
ag2
ag2
ag2
ag2
ag2
ag2
ag2
ag2
ag2
ag2
ag2
ag2
ag2
ag2
ag2
ag2
ag2
ag2
ag2
ag2
ag2
ag2
ag2
ag2
ag2
ag2
ag2
ag2
ag2
ag2
ag2
aI0
aI0
aI0
aa(lp56
I0
aI0
aI0
ag2
ag2
ag2
ag2
ag2
ag2
ag2
ag2
ag2
ag2
ag2
ag2
ag2
ag2
ag2
ag2
ag2
ag2
ag2
ag2
ag2
ag2
ag2
ag2
ag2
ag2
ag2
ag2
ag2
ag2
ag2
ag2
ag2
ag2
ag2
ag2
ag2
ag2
ag2
ag2
ag2
ag2
ag2
ag2
ag2
ag2
ag2
ag2
ag2
ag2
ag2
ag2
ag2
ag2
ag2
ag2
ag2
ag2
ag2
ag2
ag2
ag2
ag2
ag2
ag2
ag2
ag2
ag2
ag2
ag2
ag2
ag2
ag2
ag2
ag2
aI0
aI0
aI0
aa(lp57
I0
aI0
aI0
ag2
ag2
ag2
ag2
ag2
ag2
ag2
ag2
ag2
ag2
ag2
ag2
ag2
ag2
ag2
ag2
ag2
ag2
ag2
ag2
ag2
ag2
ag2
ag2
ag2
ag2
ag2
ag2
ag2
ag2
ag2
ag2
ag2
ag2
ag2
ag2
ag2
ag2
ag2
ag2
ag2
ag2
ag2
ag2
ag2
ag2
ag2
ag2
ag2
ag2
ag2
ag2
ag2
ag2
ag2
ag2
ag2
ag2
ag2
ag2
ag2
ag2
ag2
ag2
ag2
ag2
ag2
ag2
ag2
ag2
ag2
ag2
ag2
ag2
ag2
aI0
aI0
aI0
aa(lp58
I0
aI0
aI0
aI0
ag2
ag2
ag2
ag2
ag2
ag2
ag2
ag2
ag2
ag2
ag2
ag2
ag2
ag2
ag2
ag2
ag2
ag2
ag2
ag2
ag2
ag2
ag2
ag2
ag2
ag2
ag2
ag2
ag2
ag2
ag2
ag2
ag2
ag2
ag2
ag2
ag2
ag2
ag2
ag2
ag2
ag2
ag2
ag2
ag2
ag2
ag2
ag2
ag2
ag2
ag2
ag2
ag2
ag2
ag2
ag2
ag2
ag2
ag2
ag2
ag2
ag2
ag2
ag2
ag2
ag2
ag2
ag2
ag2
ag2
ag2
ag2
ag2
aI0
aI0
aI0
aI0
aa(lp59
I0
aI0
aI0
aI0
ag2
ag2
ag2
ag2
ag2
ag2
ag2
ag2
ag2
ag2
ag2
ag2
ag2
ag2
ag2
ag2
ag2
ag2
ag2
ag2
ag2
ag2
ag2
ag2
ag2
ag2
ag2
ag2
ag2
ag2
ag2
ag2
ag2
ag2
ag2
ag2
ag2
ag2
ag2
ag2
ag2
ag2
ag2
ag2
ag2
ag2
ag2
ag2
ag2
ag2
ag2
ag2
ag2
ag2
ag2
ag2
ag2
ag2
ag2
ag2
ag2
ag2
ag2
ag2
ag2
ag2
ag2
ag2
ag2
ag2
ag2
ag2
ag2
aI0
aI0
aI0
aI0
aa(lp60
I0
aI0
aI0
aI0
aI0
ag2
ag2
ag2
ag2
ag2
ag2
ag2
ag2
ag2
ag2
ag2
ag2
ag2
ag2
ag2
ag2
ag2
ag2
ag2
ag2
ag2
ag2
ag2
ag2
ag2
ag2
ag2
ag2
ag2
ag2
ag2
ag2
ag2
ag2
ag2
ag2
ag2
ag2
ag2
ag2
ag2
ag2
ag2
ag2
ag2
ag2
ag2
ag2
ag2
ag2
ag2
ag2
ag2
ag2
ag2
ag2
ag2
ag2
ag2
ag2
ag2
ag2
ag2
ag2
ag2
ag2
ag2
ag2
ag2
ag2
ag2
aI0
aI0
aI0
aI0
aI0
aa(lp61
I0
aI0
aI0
aI0
aI0
ag2
ag2
ag2
ag2
ag2
ag2
ag2
ag2
ag2
ag2
ag2
ag2
ag2
ag2
ag2
ag2
ag2
ag2
ag2
ag2
ag2
ag2
ag2
ag2
ag2
ag2
ag2
ag2
ag2
ag2
ag2
ag2
ag2
ag2
ag2
ag2
ag2
ag2
ag2
ag2
ag2
ag2
ag2
ag2
ag2
ag2
ag2
ag2
ag2
ag2
ag2
ag2
ag2
ag2
ag2
ag2
ag2
ag2
ag2
ag2
ag2
ag2
ag2
ag2
ag2
ag2
ag2
ag2
ag2
ag2
ag2
aI0
aI0
aI0
aI0
aI0
aa(lp62
I0
aI0
aI0
aI0
aI0
aI0
ag2
ag2
ag2
ag2
ag2
ag2
ag2
ag2
ag2
ag2
ag2
ag2
ag2
ag2
ag2
ag2
ag2
ag2
ag2
ag2
ag2
ag2
ag2
ag2
ag2
ag2
ag2
ag2
ag2
ag2
ag2
ag2
ag2
ag2
ag2
ag2
ag2
ag2
ag2
ag2
ag2
ag2
ag2
ag2
ag2
ag2
ag2
ag2
ag2
ag2
ag2
ag2
ag2
ag2
ag2
ag2
ag2
ag2
ag2
ag2
ag2
ag2
ag2
ag2
ag2
ag2
ag2
ag2
ag2
aI0
aI0
aI0
aI0
aI0
aI0
aa(lp63
I0
aI0
aI0
aI0
aI0
aI0
ag2
ag2
ag2
ag2
ag2
ag2
ag2
ag2
ag2
ag2
ag2
ag2
ag2
ag2
ag2
ag2
ag2
ag2
ag2
ag2
ag2
ag2
ag2
ag2
ag2
ag2
ag2
ag2
ag2
ag2
ag2
ag2
ag2
ag2
ag2
ag2
ag2
ag2
ag2
ag2
ag2
ag2
ag2
ag2
ag2
ag2
ag2
ag2
ag2
ag2
ag2
ag2
ag2
ag2
ag2
ag2
ag2
ag2
ag2
ag2
ag2
ag2
ag2
ag2
ag2
ag2
ag2
ag2
ag2
aI0
aI0
aI0
aI0
aI0
aI0
aa(lp64
I0
aI0
aI0
aI0
aI0
aI0
aI0
ag2
ag2
ag2
ag2
ag2
ag2
ag2
ag2
ag2
ag2
ag2
ag2
ag2
ag2
ag2
ag2
ag2
ag2
ag2
ag2
ag2
ag2
ag2
ag2
ag2
ag2
ag2
ag2
ag2
ag2
ag2
ag2
ag2
ag2
ag2
ag2
ag2
ag2
ag2
ag2
ag2
ag2
ag2
ag2
ag2
ag2
ag2
ag2
ag2
ag2
ag2
ag2
ag2
ag2
ag2
ag2
ag2
ag2
ag2
ag2
ag2
ag2
ag2
ag2
ag2
ag2
ag2
aI0
aI0
aI0
aI0
aI0
aI0
aI0
aa(lp65
I0
aI0
aI0
aI0
aI0
aI0
aI0
aI0
ag2
ag2
ag2
ag2
ag2
ag2
ag2
ag2
ag2
ag2
ag2
ag2
ag2
ag2
ag2
ag2
ag2
ag2
ag2
ag2
ag2
ag2
ag2
ag2
ag2
ag2
ag2
ag2
ag2
ag2
ag2
ag2
ag2
ag2
ag2
ag2
ag2
ag2
ag2
ag2
ag2
ag2
ag2
ag2
ag2
ag2
ag2
ag2
ag2
ag2
ag2
ag2
ag2
ag2
ag2
ag2
ag2
ag2
ag2
ag2
ag2
ag2
ag2
ag2
ag2
aI0
aI0
aI0
aI0
aI0
aI0
aI0
aI0
aa(lp66
I0
aI0
aI0
aI0
aI0
aI0
aI0
aI0
ag2
ag2
ag2
ag2
ag2
ag2
ag2
ag2
ag2
ag2
ag2
ag2
ag2
ag2
ag2
ag2
ag2
ag2
ag2
ag2
ag2
ag2
ag2
ag2
ag2
ag2
ag2
ag2
ag2
ag2
ag2
ag2
ag2
ag2
ag2
ag2
ag2
ag2
ag2
ag2
ag2
ag2
ag2
ag2
ag2
ag2
ag2
ag2
ag2
ag2
ag2
ag2
ag2
ag2
ag2
ag2
ag2
ag2
ag2
ag2
ag2
ag2
ag2
ag2
ag2
aI0
aI0
aI0
aI0
aI0
aI0
aI0
aI0
aa(lp67
I0
aI0
aI0
aI0
aI0
aI0
aI0
aI0
aI0
ag2
ag2
ag2
ag2
ag2
ag2
ag2
ag2
ag2
ag2
ag2
ag2
ag2
ag2
ag2
ag2
ag2
ag2
ag2
ag2
ag2
ag2
ag2
ag2
ag2
ag2
ag2
ag2
ag2
ag2
ag2
ag2
ag2
ag2
ag2
ag2
ag2
ag2
ag2
ag2
ag2
ag2
ag2
ag2
ag2
ag2
ag2
ag2
ag2
ag2
ag2
ag2
ag2
ag2
ag2
ag2
ag2
ag2
ag2
ag2
ag2
ag2
ag2
aI0
aI0
aI0
aI0
aI0
aI0
aI0
aI0
aI0
aa(lp68
I0
aI0
aI0
aI0
aI0
aI0
aI0
aI0
aI0
aI0
ag2
ag2
ag2
ag2
ag2
ag2
ag2
ag2
ag2
ag2
ag2
ag2
ag2
ag2
ag2
ag2
ag2
ag2
ag2
ag2
ag2
ag2
ag2
ag2
ag2
ag2
ag2
ag2
ag2
ag2
ag2
ag2
ag2
ag2
ag2
ag2
ag2
ag2
ag2
ag2
ag2
ag2
ag2
ag2
ag2
ag2
ag2
ag2
ag2
ag2
ag2
ag2
ag2
ag2
ag2
ag2
ag2
ag2
ag2
ag2
ag2
aI0
aI0
aI0
aI0
aI0
aI0
aI0
aI0
aI0
aI0
aa(lp69
I0
aI0
aI0
aI0
aI0
aI0
aI0
aI0
aI0
aI0
aI0
ag2
ag2
ag2
ag2
ag2
ag2
ag2
ag2
ag2
ag2
ag2
ag2
ag2
ag2
ag2
ag2
ag2
ag2
ag2
ag2
ag2
ag2
ag2
ag2
ag2
ag2
ag2
ag2
ag2
ag2
ag2
ag2
ag2
ag2
ag2
ag2
ag2
ag2
ag2
ag2
ag2
ag2
ag2
ag2
ag2
ag2
ag2
ag2
ag2
ag2
ag2
ag2
ag2
ag2
ag2
ag2
ag2
ag2
ag2
aI0
aI0
aI0
aI0
aI0
aI0
aI0
aI0
aI0
aI0
aI0
aa(lp70
I0
aI0
aI0
aI0
aI0
aI0
aI0
aI0
aI0
aI0
aI0
aI0
ag2
ag2
ag2
ag2
ag2
ag2
ag2
ag2
ag2
ag2
ag2
ag2
ag2
ag2
ag2
ag2
ag2
ag2
ag2
ag2
ag2
ag2
ag2
ag2
ag2
ag2
ag2
ag2
ag2
ag2
ag2
ag2
ag2
ag2
ag2
ag2
ag2
ag2
ag2
ag2
ag2
ag2
ag2
ag2
ag2
ag2
ag2
ag2
ag2
ag2
ag2
ag2
ag2
ag2
ag2
ag2
ag2
aI0
aI0
aI0
aI0
aI0
aI0
aI0
aI0
aI0
aI0
aI0
aI0
aa(lp71
I0
aI0
aI0
aI0
aI0
aI0
aI0
aI0
aI0
aI0
aI0
aI0
aI0
ag2
ag2
ag2
ag2
ag2
ag2
ag2
ag2
ag2
ag2
ag2
ag2
ag2
ag2
ag2
ag2
ag2
ag2
ag2
ag2
ag2
ag2
ag2
ag2
ag2
ag2
ag2
ag2
ag2
ag2
ag2
ag2
ag2
ag2
ag2
ag2
ag2
ag2
ag2
ag2
ag2
ag2
ag2
ag2
ag2
ag2
ag2
ag2
ag2
ag2
ag2
ag2
ag2
ag2
ag2
aI0
aI0
aI0
aI0
aI0
aI0
aI0
aI0
aI0
aI0
aI0
aI0
aI0
aa(lp72
I0
aI0
aI0
aI0
aI0
aI0
aI0
aI0
aI0
aI0
aI0
aI0
aI0
aI0
ag2
ag2
ag2
ag2
ag2
ag2
ag2
ag2
ag2
ag2
ag2
ag2
ag2
ag2
ag2
ag2
ag2
ag2
ag2
ag2
ag2
ag2
ag2
ag2
ag2
ag2
ag2
ag2
ag2
ag2
ag2
ag2
ag2
ag2
ag2
ag2
ag2
ag2
ag2
ag2
ag2
ag2
ag2
ag2
ag2
ag2
ag2
ag2
ag2
ag2
ag2
ag2
ag2
aI0
aI0
aI0
aI0
aI0
aI0
aI0
aI0
aI0
aI0
aI0
aI0
aI0
aI0
aa(lp73
I0
aI0
aI0
aI0
aI0
aI0
aI0
aI0
aI0
aI0
aI0
aI0
aI0
aI0
aI0
ag2
ag2
ag2
ag2
ag2
ag2
ag2
ag2
ag2
ag2
ag2
ag2
ag2
ag2
ag2
ag2
ag2
ag2
ag2
ag2
ag2
ag2
ag2
ag2
ag2
ag2
ag2
ag2
ag2
ag2
ag2
ag2
ag2
ag2
ag2
ag2
ag2
ag2
ag2
ag2
ag2
ag2
ag2
ag2
ag2
ag2
ag2
ag2
ag2
ag2
ag2
aI0
aI0
aI0
aI0
aI0
aI0
aI0
aI0
aI0
aI0
aI0
aI0
aI0
aI0
aI0
aa(lp74
I0
aI0
aI0
aI0
aI0
aI0
aI0
aI0
aI0
aI0
aI0
aI0
aI0
aI0
aI0
aI0
ag2
ag2
ag2
ag2
ag2
ag2
ag2
ag2
ag2
ag2
ag2
ag2
ag2
ag2
ag2
ag2
ag2
ag2
ag2
ag2
ag2
ag2
ag2
ag2
ag2
ag2
ag2
ag2
ag2
ag2
ag2
ag2
ag2
ag2
ag2
ag2
ag2
ag2
ag2
ag2
ag2
ag2
ag2
ag2
ag2
ag2
ag2
ag2
ag2
aI0
aI0
aI0
aI0
aI0
aI0
aI0
aI0
aI0
aI0
aI0
aI0
aI0
aI0
aI0
aI0
aa(lp75
I0
aI0
aI0
aI0
aI0
aI0
aI0
aI0
aI0
aI0
aI0
aI0
aI0
aI0
aI0
aI0
aI0
aI0
ag2
ag2
ag2
ag2
ag2
ag2
ag2
ag2
ag2
ag2
ag2
ag2
ag2
ag2
ag2
ag2
ag2
ag2
ag2
ag2
ag2
ag2
ag2
ag2
ag2
ag2
ag2
ag2
ag2
ag2
ag2
ag2
ag2
ag2
ag2
ag2
ag2
ag2
ag2
ag2
ag2
ag2
ag2
ag2
ag2
aI0
aI0
aI0
aI0
aI0
aI0
aI0
aI0
aI0
aI0
aI0
aI0
aI0
aI0
aI0
aI0
aI0
aI0
aa(lp76
I0
aI0
aI0
aI0
aI0
aI0
aI0
aI0
aI0
aI0
aI0
aI0
aI0
aI0
aI0
aI0
aI0
aI0
aI0
ag2
ag2
ag2
ag2
ag2
ag2
ag2
ag2
ag2
ag2
ag2
ag2
ag2
ag2
ag2
ag2
ag2
ag2
ag2
ag2
ag2
ag2
ag2
ag2
ag2
ag2
ag2
ag2
ag2
ag2
ag2
ag2
ag2
ag2
ag2
ag2
ag2
ag2
ag2
ag2
ag2
ag2
ag2
aI0
aI0
aI0
aI0
aI0
aI0
aI0
aI0
aI0
aI0
aI0
aI0
aI0
aI0
aI0
aI0
aI0
aI0
aI0
aa(lp77
I0
aI0
aI0
aI0
aI0
aI0
aI0
aI0
aI0
aI0
aI0
aI0
aI0
aI0
aI0
aI0
aI0
aI0
aI0
aI0
aI0
ag2
ag2
ag2
ag2
ag2
ag2
ag2
ag2
ag2
ag2
ag2
ag2
ag2
ag2
ag2
ag2
ag2
ag2
ag2
ag2
ag2
ag2
ag2
ag2
ag2
ag2
ag2
ag2
ag2
ag2
ag2
ag2
ag2
ag2
ag2
ag2
ag2
ag2
ag2
aI0
aI0
aI0
aI0
aI0
aI0
aI0
aI0
aI0
aI0
aI0
aI0
aI0
aI0
aI0
aI0
aI0
aI0
aI0
aI0
aI0
aa(lp78
I0
aI0
aI0
aI0
aI0
aI0
aI0
aI0
aI0
aI0
aI0
aI0
aI0
aI0
aI0
aI0
aI0
aI0
aI0
aI0
aI0
aI0
aI0
ag2
ag2
ag2
ag2
ag2
ag2
ag2
ag2
ag2
ag2
ag2
ag2
ag2
ag2
ag2
ag2
ag2
ag2
ag2
ag2
ag2
ag2
ag2
ag2
ag2
ag2
ag2
ag2
ag2
ag2
ag2
ag2
ag2
ag2
ag2
aI0
aI0
aI0
aI0
aI0
aI0
aI0
aI0
aI0
aI0
aI0
aI0
aI0
aI0
aI0
aI0
aI0
aI0
aI0
aI0
aI0
aI0
aI0
aa(lp79
I0
aI0
aI0
aI0
aI0
aI0
aI0
aI0
aI0
aI0
aI0
aI0
aI0
aI0
aI0
aI0
aI0
aI0
aI0
aI0
aI0
aI0
aI0
aI0
aI0
ag2
ag2
ag2
ag2
ag2
ag2
ag2
ag2
ag2
ag2
ag2
ag2
ag2
ag2
ag2
ag2
ag2
ag2
ag2
ag2
ag2
ag2
ag2
ag2
ag2
ag2
ag2
ag2
ag2
ag2
ag2
aI0
aI0
aI0
aI0
aI0
aI0
aI0
aI0
aI0
aI0
aI0
aI0
aI0
aI0
aI0
aI0
aI0
aI0
aI0
aI0
aI0
aI0
aI0
aI0
aI0
aa(lp80
I0
aI0
aI0
aI0
aI0
aI0
aI0
aI0
aI0
aI0
aI0
aI0
aI0
aI0
aI0
aI0
aI0
aI0
aI0
aI0
aI0
aI0
aI0
aI0
aI0
aI0
aI0
aI0
ag2
ag2
ag2
ag2
ag2
ag2
ag2
ag2
ag2
ag2
ag2
ag2
ag2
ag2
ag2
ag2
ag2
ag2
ag2
ag2
ag2
ag2
ag2
ag2
ag2
aI0
aI0
aI0
aI0
aI0
aI0
aI0
aI0
aI0
aI0
aI0
aI0
aI0
aI0
aI0
aI0
aI0
aI0
aI0
aI0
aI0
aI0
aI0
aI0
aI0
aI0
aI0
aI0
aa(lp81
I0
aI0
aI0
aI0
aI0
aI0
aI0
aI0
aI0
aI0
aI0
aI0
aI0
aI0
aI0
aI0
aI0
aI0
aI0
aI0
aI0
aI0
aI0
aI0
aI0
aI0
aI0
aI0
aI0
aI0
aI0
aI0
ag2
ag2
ag2
ag2
ag2
ag2
ag2
ag2
ag2
ag2
ag2
ag2
ag2
ag2
ag2
ag2
ag2
aI0
aI0
aI0
aI0
aI0
aI0
aI0
aI0
aI0
aI0
aI0
aI0
aI0
aI0
aI0
aI0
aI0
aI0
aI0
aI0
aI0
aI0
aI0
aI0
aI0
aI0
aI0
aI0
aI0
aI0
aI0
aI0
aa(lp82
I0
aI0
aI0
aI0
aI0
aI0
aI0
aI0
aI0
aI0
aI0
aI0
aI0
aI0
aI0
aI0
aI0
aI0
aI0
aI0
aI0
aI0
aI0
aI0
aI0
aI0
aI0
aI0
aI0
aI0
aI0
aI0
aI0
aI0
aI0
aI0
aI0
aI0
aI0
aI0
ag2
aI0
aI0
aI0
aI0
aI0
aI0
aI0
aI0
aI0
aI0
aI0
aI0
aI0
aI0
aI0
aI0
aI0
aI0
aI0
aI0
aI0
aI0
aI0
aI0
aI0
aI0
aI0
aI0
aI0
aI0
aI0
aI0
aI0
aI0
aI0
aI0
aI0
aI0
aI0
aI0
aa.(I320
I40
I40
tp0
.(lp0
(I280
I40
tp1
a(I281
I32
tp2
a(I281
I33
tp3
a(I281
I34
tp4
a(I281
I35
tp5
a(I281
I36
tp6
a(I281
I37
tp7
a(I281
I38
tp8
a(I281
I39
tp9
a(I281
I40
tp10
a(I281
I41
tp11
a(I281
I42
tp12
a(I281
I43
tp13
a(I281
I44
tp14
a(I281
I45
tp15
a(I281
I46
tp16
a(I281
I47
tp17
a(I281
I48
tp18
a(I282
I28
tp19
a(I282
I29
tp20
a(I282
I30
tp21
a(I282
I31
tp22
a(I282
I32
tp23
a(I282
I33
tp24
a(I282
I34
tp25
a(I282
I35
tp26
a(I282
I36
tp27
a(I282
I37
tp28
a(I282
I38
tp29
a(I282
I39
tp30
a(I282
I40
tp31
a(I282
I41
tp32
a(I282
I42
tp33
a(I282
I43
tp34
a(I282
I44
tp35
a(I282
I45
tp36
a(I282
I46
tp37
a(I282
I47
tp38
a(I282
I48
tp39
a(I282
I49
tp40
a(I282
I50
tp41
a(I282
I51
tp42
a(I282
I52
tp43
a(I283
I25
tp44
a(I283
I26
tp45
a(I283
I27
tp46
a(I283
I28
tp47
a(I283
I29
tp48
a(I283
I30
tp49
a(I283
I31
tp50
a(I283
I32
tp51
a(I283
I33
tp52
a(I283
I34
tp53
a(I283
I35
tp54
a(I283
I36
tp55
a(I283
I37
tp56
a(I283
I38
tp57
a(I283
I39
tp58
a(I283
I40
tp59
a(I283
I41
tp60
a(I283
I42
tp61
a(I283
I43
tp62
a(I283
I44
tp63
a(I283
I45
tp64
a(I283
I46
tp65
a(I283
I47
tp66
a(I283
I48
tp67
a(I283
I49
tp68
a(I283
I50
tp69
a(I283
I51
tp70
a(I283
I52
tp71
a(I283
I53
tp72
a(I283
I54
tp73
a(I283
I55
tp74
a(I284
I23
tp75
a(I284
I24
tp76
a(I284
I25
tp77
a(I284
I26
tp78
a(I284
I27
tp79
a(I284
I28
tp80
a(I284
I29
tp81
a(I284
I30
tp82
a(I284
I31
tp83
a(I284
I32
tp84
a(I284
I33
tp85
a(I284
I34
tp86
a(I284
I35
tp87
a(I284
I36
tp88
a(I284
I37
tp89
a(I284
I38
tp90
a(I284
I39
tp91
a(I284
I40
tp92
a(I284
I41
tp93
a(I284
I42
tp94
a(I284
I43
tp95
a(I284
I44
tp96
a(I284
I45
tp97
a(I284
I46
tp98
a(I284
I47
tp99
a(I284
I48
tp100
a(I284
I49
tp101
a(I284
I50
tp102
a(I284
I51
tp103
a(I284
I52
tp104
a(I284
I53
tp105
a(I284
I54
tp106
a(I284
I55
tp107
a(I284
I56
tp108
a(I284
I57
tp109
a(I285
I21
tp110
a(I285
I22
tp111
a(I285
I23
tp112
a(I285
I24
tp113
a(I285
I25
tp114
a(I285
I26
tp115
a(I285
I27
tp116
a(I285
I28
tp117
a(I285
I29
tp118
a(I285
I30
tp119
a(I285
I31
tp120
a(I285
I32
tp121
a(I285
I33
tp122
a(I285
I34
tp123
a(I285
I35
tp124
a(I285
I36
tp125
a(I285
I37
tp126
a(I285
I38
tp127
a(I285
I39
tp128
a(I285
I40
tp129
a(I285
I41
tp130
a(I285
I42
tp131
a(I285
I43
tp132
a(I285
I44
tp133
a(I285
I45
tp134
a(I285
I46
tp135
a(I285
I47
tp136
a(I285
I48
tp137
a(I285
I49
tp138
a(I285
I50
tp139
a(I285
I51
tp140
a(I285
I52
tp141
a(I285
I53
tp142
a(I285
I54
tp143
a(I285
I55
tp144
a(I285
I56
tp145
a(I285
I57
tp146
a(I285
I58
tp147
a(I285
I59
tp148
a(I286
I19
tp149
a(I286
I20
tp150
a(I286
I21
tp151
a(I286
I22
tp152
a(I286
I23
tp153
a(I286
I24
tp154
a(I286
I25
tp155
a(I286
I26
tp156
a(I286
I27
tp157
a(I286
I28
tp158
a(I286
I29
tp159
a(I286
I30
tp160
a(I286
I31
tp161
a(I286
I32
tp162
a(I286
I33
tp163
a(I286
I34
tp164
a(I286
I35
tp165
a(I286
I36
tp166
a(I286
I37
tp167
a(I286
I38
tp168
a(I286
I39
tp169
a(I286
I40
tp170
a(I286
I41
tp171
a(I286
I42
tp172
a(I286
I43
tp173
a(I286
I44
tp174
a(I286
I45
tp175
a(I286
I46
tp176
a(I286
I47
tp177
a(I286
I48
tp178
a(I286
I49
tp179
a(I286
I50
tp180
a(I286
I51
tp181
a(I286
I52
tp182
a(I286
I53
tp183
a(I286
I54
tp184
a(I286
I55
tp185
a(I286
I57
tp186
a(I286
I58
tp187
a(I286
I59
tp188
a(I286
I60
tp189
a(I286
I61
tp190
a(I287
I18
tp191
a(I287
I19
tp192
a(I287
I20
tp193
a(I287
I21
tp194
a(I287
I22
tp195
a(I287
I23
tp196
a(I287
I24
tp197
a(I287
I25
tp198
a(I287
I26
tp199
a(I287
I27
tp200
a(I287
I28
tp201
a(I287
I29
tp202
a(I287
I30
tp203
a(I287
I31
tp204
a(I287
I32
tp205
a(I287
I33
tp206
a(I287
I34
tp207
a(I287
I35
tp208
a(I287
I36
tp209
a(I287
I37
tp210
a(I287
I38
tp211
a(I287
I39
tp212
a(I287
I40
tp213
a(I287
I41
tp214
a(I287
I42
tp215
a(I287
I43
tp216
a(I287
I44
tp217
a(I287
I45
tp218
a(I287
I46
tp219
a(I287
I47
tp220
a(I287
I48
tp221
a(I287
I49
tp222
a(I287
I50
tp223
a(I287
I51
tp224
a(I287
I61
tp225
a(I287
I62
tp226
a(I288
I16
tp227
a(I288
I17
tp228
a(I288
I18
tp229
a(I288
I19
tp230
a(I288
I20
tp231
a(I288
I21
tp232
a(I288
I22
tp233
a(I288
I23
tp234
a(I288
I24
tp235
a(I288
I25
tp236
a(I288
I27
tp237
a(I288
I28
tp238
a(I288
I29
tp239
a(I288
I30
tp240
a(I288
I31
tp241
a(I288
I32
tp242
a(I288
I33
tp243
a(I288
I34
tp244
a(I288
I35
tp245
a(I288
I36
tp246
a(I288
I37
tp247
a(I288
I38
tp248
a(I288
I39
tp249
a(I288
I40
tp250
a(I288
I41
tp251
a(I288
I42
tp252
a(I288
I43
tp253
a(I288
I44
tp254
a(I288
I45
tp255
a(I288
I46
tp256
a(I288
I47
tp257
a(I288
I48
tp258
a(I288
I49
tp259
a(I288
I63
tp260
a(I288
I64
tp261
a(I289
I15
tp262
a(I289
I16
tp263
a(I289
I17
tp264
a(I289
I18
tp265
a(I289
I19
tp266
a(I289
I20
tp267
a(I289
I21
tp268
a(I289
I31
tp269
a(I289
I32
tp270
a(I289
I33
tp271
a(I289
I34
tp272
a(I289
I35
tp273
a(I289
I36
tp274
a(I289
I37
tp275
a(I289
I38
tp276
a(I289
I39
tp277
a(I289
I40
tp278
a(I289
I41
tp279
a(I289
I42
tp280
a(I289
I43
tp281
a(I289
I44
tp282
a(I289
I45
tp283
a(I289
I46
tp284
a(I289
I47
tp285
a(I289
I48
tp286
a(I289
I64
tp287
a(I289
I65
tp288
a(I290
I14
tp289
a(I290
I15
tp290
a(I290
I16
tp291
a(I290
I17
tp292
a(I290
I18
tp293
a(I290
I19
tp294
a(I290
I33
tp295
a(I290
I34
tp296
a(I290
I35
tp297
a(I290
I36
tp298
a(I290
I37
tp299
a(I290
I38
tp300
a(I290
I39
tp301
a(I290
I40
tp302
a(I290
I41
tp303
a(I290
I42
tp304
a(I290
I43
tp305
a(I290
I44
tp306
a(I290
I45
tp307
a(I290
I46
tp308
a(I290
I47
tp309
a(I290
I65
tp310
a(I290
I66
tp311
a(I291
I13
tp312
a(I291
I14
tp313
a(I291
I15
tp314
a(I291
I16
tp315
a(I291
I17
tp316
a(I291
I18
tp317
a(I291
I34
tp318
a(I291
I35
tp319
a(I291
I36
tp320
a(I291
I37
tp321
a(I291
I38
tp322
a(I291
I39
tp323
a(I291
I40
tp324
a(I291
I41
tp325
a(I291
I42
tp326
a(I291
I43
tp327
a(I291
I44
tp328
a(I291
I45
tp329
a(I291
I46
tp330
a(I291
I66
tp331
a(I292
I12
tp332
a(I292
I13
tp333
a(I292
I14
tp334
a(I292
I15
tp335
a(I292
I16
tp336
a(I292
I17
tp337
a(I292
I35
tp338
a(I292
I36
tp339
a(I292
I37
tp340
a(I292
I38
tp341
a(I292
I39
tp342
a(I292
I40
tp343
a(I292
I41
tp344
a(I292
I42
tp345
a(I292
I43
tp346
a(I292
I44
tp347
a(I292
I45
tp348
a(I293
I11
tp349
a(I293
I12
tp350
a(I293
I13
tp351
a(I293
I14
tp352
a(I293
I15
tp353
a(I293
I16
tp354
a(I293
I36
tp355
a(I293
I37
tp356
a(I293
I38
tp357
a(I293
I39
tp358
a(I293
I40
tp359
a(I293
I41
tp360
a(I293
I42
tp361
a(I293
I43
tp362
a(I293
I44
tp363
a(I293
I45
tp364
a(I294
I10
tp365
a(I294
I11
tp366
a(I294
I12
tp367
a(I294
I13
tp368
a(I294
I14
tp369
a(I294
I15
tp370
a(I294
I37
tp371
a(I294
I38
tp372
a(I294
I39
tp373
a(I294
I40
tp374
a(I294
I41
tp375
a(I294
I42
tp376
a(I294
I43
tp377
a(I294
I44
tp378
a(I295
I9
tp379
a(I295
I10
tp380
a(I295
I11
tp381
a(I295
I12
tp382
a(I295
I13
tp383
a(I295
I14
tp384
a(I295
I15
tp385
a(I295
I37
tp386
a(I295
I38
tp387
a(I295
I39
tp388
a(I295
I40
tp389
a(I295
I41
tp390
a(I295
I42
tp391
a(I295
I43
tp392
a(I295
I44
tp393
a(I296
I8
tp394
a(I296
I9
tp395
a(I296
I10
tp396
a(I296
I11
tp397
a(I296
I12
tp398
a(I296
I13
tp399
a(I296
I14
tp400
a(I296
I38
tp401
a(I296
I39
tp402
a(I296
I40
tp403
a(I296
I41
tp404
a(I296
I42
tp405
a(I296
I43
tp406
a(I296
I44
tp407
a(I297
I8
tp408
a(I297
I9
tp409
a(I297
I10
tp410
a(I297
I11
tp411
a(I297
I12
tp412
a(I297
I13
tp413
a(I297
I14
tp414
a(I297
I38
tp415
a(I297
I39
tp416
a(I297
I40
tp417
a(I297
I41
tp418
a(I297
I42
tp419
a(I297
I43
tp420
a(I297
I44
tp421
a(I298
I7
tp422
a(I298
I8
tp423
a(I298
I9
tp424
a(I298
I10
tp425
a(I298
I11
tp426
a(I298
I12
tp427
a(I298
I13
tp428
a(I298
I14
tp429
a(I298
I38
tp430
a(I298
I39
tp431
a(I298
I40
tp432
a(I298
I41
tp433
a(I298
I42
tp434
a(I298
I43
tp435
a(I299
I6
tp436
a(I299
I7
tp437
a(I299
I8
tp438
a(I299
I9
tp439
a(I299
I10
tp440
a(I299
I11
tp441
a(I299
I12
tp442
a(I299
I13
tp443
a(I299
I14
tp444
a(I299
I38
tp445
a(I299
I39
tp446
a(I299
I40
tp447
a(I299
I41
tp448
a(I299
I42
tp449
a(I299
I43
tp450
a(I299
I44
tp451
a(I300
I6
tp452
a(I300
I7
tp453
a(I300
I8
tp454
a(I300
I9
tp455
a(I300
I10
tp456
a(I300
I11
tp457
a(I300
I12
tp458
a(I300
I13
tp459
a(I300
I39
tp460
a(I300
I40
tp461
a(I300
I41
tp462
a(I300
I42
tp463
a(I300
I43
tp464
a(I300
I44
tp465
a(I301
I5
tp466
a(I301
I6
tp467
a(I301
I7
tp468
a(I301
I8
tp469
a(I301
I9
tp470
a(I301
I10
tp471
a(I301
I11
tp472
a(I301
I12
tp473
a(I301
I13
tp474
a(I301
I14
tp475
a(I301
I38
tp476
a(I301
I39
tp477
a(I301
I40
tp478
a(I301
I41
tp479
a(I301
I42
tp480
a(I301
I43
tp481
a(I301
I44
tp482
a(I302
I5
tp483
a(I302
I6
tp484
a(I302
I7
tp485
a(I302
I8
tp486
a(I302
I9
tp487
a(I302
I10
tp488
a(I302
I11
tp489
a(I302
I12
tp490
a(I302
I13
tp491
a(I302
I14
tp492
a(I302
I38
tp493
a(I302
I39
tp494
a(I302
I40
tp495
a(I302
I41
tp496
a(I302
I42
tp497
a(I302
I43
tp498
a(I303
I4
tp499
a(I303
I5
tp500
a(I303
I6
tp501
a(I303
I7
tp502
a(I303
I8
tp503
a(I303
I9
tp504
a(I303
I10
tp505
a(I303
I11
tp506
a(I303
I12
tp507
a(I303
I13
tp508
a(I303
I14
tp509
a(I303
I38
tp510
a(I303
I39
tp511
a(I303
I40
tp512
a(I303
I41
tp513
a(I303
I42
tp514
a(I304
I4
tp515
a(I304
I5
tp516
a(I304
I6
tp517
a(I304
I7
tp518
a(I304
I8
tp519
a(I304
I9
tp520
a(I304
I10
tp521
a(I304
I11
tp522
a(I304
I12
tp523
a(I304
I13
tp524
a(I304
I14
tp525
a(I304
I38
tp526
a(I304
I39
tp527
a(I304
I40
tp528
a(I304
I41
tp529
a(I305
I3
tp530
a(I305
I4
tp531
a(I305
I5
tp532
a(I305
I6
tp533
a(I305
I7
tp534
a(I305
I8
tp535
a(I305
I9
tp536
a(I305
I10
tp537
a(I305
I37
tp538
a(I305
I38
tp539
a(I305
I39
tp540
a(I305
I40
tp541
a(I305
I41
tp542
a(I306
I3
tp543
a(I306
I4
tp544
a(I306
I5
tp545
a(I306
I6
tp546
a(I306
I7
tp547
a(I306
I8
tp548
a(I306
I37
tp549
a(I306
I38
tp550
a(I306
I39
tp551
a(I306
I40
tp552
a(I307
I3
tp553
a(I307
I4
tp554
a(I307
I5
tp555
a(I307
I6
tp556
a(I307
I7
tp557
a(I307
I36
tp558
a(I307
I37
tp559
a(I307
I38
tp560
a(I307
I39
tp561
a(I307
I40
tp562
a(I308
I2
tp563
a(I308
I3
tp564
a(I308
I4
tp565
a(I308
I5
tp566
a(I308
I6
tp567
a(I308
I35
tp568
a(I308
I36
tp569
a(I308
I37
tp570
a(I308
I38
tp571
a(I308
I39
tp572
a(I308
I40
tp573
a(I308
I78
tp574
a(I309
I2
tp575
a(I309
I3
tp576
a(I309
I4
tp577
a(I309
I5
tp578
a(I309
I34
tp579
a(I309
I35
tp580
a(I309
I36
tp581
a(I309
I37
tp582
a(I309
I38
tp583
a(I309
I39
tp584
a(I309
I40
tp585
a(I309
I78
tp586
a(I310
I2
tp587
a(I310
I3
tp588
a(I310
I4
tp589
a(I310
I33
tp590
a(I310
I34
tp591
a(I310
I35
tp592
a(I310
I36
tp593
a(I310
I37
tp594
a(I310
I38
tp595
a(I310
I39
tp596
a(I310
I78
tp597
a(I311
I2
tp598
a(I311
I3
tp599
a(I311
I4
tp600
a(I311
I31
tp601
a(I311
I32
tp602
a(I311
I33
tp603
a(I311
I34
tp604
a(I311
I35
tp605
a(I311
I36
tp606
a(I311
I37
tp607
a(I311
I38
tp608
a(I311
I39
tp609
a(I311
I40
tp610
a(I311
I78
tp611
a(I312
I1
tp612
a(I312
I2
tp613
a(I312
I3
tp614
a(I312
I27
tp615
a(I312
I28
tp616
a(I312
I29
tp617
a(I312
I30
tp618
a(I312
I31
tp619
a(I312
I32
tp620
a(I312
I33
tp621
a(I312
I34
tp622
a(I312
I35
tp623
a(I312
I36
tp624
a(I312
I37
tp625
a(I312
I38
tp626
a(I312
I39
tp627
a(I312
I40
tp628
a(I312
I79
tp629
a(I313
I1
tp630
a(I313
I2
tp631
a(I313
I3
tp632
a(I313
I27
tp633
a(I313
I28
tp634
a(I313
I29
tp635
a(I313
I30
tp636
a(I313
I31
tp637
a(I313
I32
tp638
a(I313
I33
tp639
a(I313
I34
tp640
a(I313
I35
tp641
a(I313
I36
tp642
a(I313
I37
tp643
a(I313
I38
tp644
a(I313
I39
tp645
a(I313
I40
tp646
a(I313
I79
tp647
a(I314
I1
tp648
a(I314
I2
tp649
a(I314
I3
tp650
a(I314
I27
tp651
a(I314
I28
tp652
a(I314
I29
tp653
a(I314
I30
tp654
a(I314
I31
tp655
a(I314
I32
tp656
a(I314
I33
tp657
a(I314
I34
tp658
a(I314
I35
tp659
a(I314
I36
tp660
a(I314
I37
tp661
a(I314
I38
tp662
a(I314
I39
tp663
a(I314
I40
tp664
a(I314
I79
tp665
a(I315
I1
tp666
a(I315
I2
tp667
a(I315
I3
tp668
a(I315
I27
tp669
a(I315
I28
tp670
a(I315
I29
tp671
a(I315
I30
tp672
a(I315
I31
tp673
a(I315
I32
tp674
a(I315
I33
tp675
a(I315
I34
tp676
a(I315
I35
tp677
a(I315
I36
tp678
a(I315
I37
tp679
a(I315
I38
tp680
a(I315
I39
tp681
a(I315
I40
tp682
a(I315
I41
tp683
a(I315
I79
tp684
a(I316
I1
tp685
a(I316
I2
tp686
a(I316
I28
tp687
a(I316
I29
tp688
a(I316
I30
tp689
a(I316
I31
tp690
a(I316
I32
tp691
a(I316
I33
tp692
a(I316
I34
tp693
a(I316
I35
tp694
a(I316
I36
tp695
a(I316
I37
tp696
a(I316
I38
tp697
a(I316
I39
tp698
a(I316
I40
tp699
a(I316
I41
tp700
a(I317
I1
tp701
a(I317
I2
tp702
a(I317
I3
tp703
a(I317
I27
tp704
a(I317
I28
tp705
a(I317
I29
tp706
a(I317
I30
tp707
a(I317
I31
tp708
a(I317
I32
tp709
a(I317
I33
tp710
a(I317
I34
tp711
a(I317
I35
tp712
a(I317
I36
tp713
a(I317
I37
tp714
a(I317
I38
tp715
a(I317
I39
tp716
a(I317
I40
tp717
a(I317
I41
tp718
a(I317
I42
tp719
a(I317
I79
tp720
a(I318
I1
tp721
a(I318
I2
tp722
a(I318
I3
tp723
a(I318
I27
tp724
a(I318
I28
tp725
a(I318
I29
tp726
a(I318
I30
tp727
a(I318
I31
tp728
a(I318
I32
tp729
a(I318
I33
tp730
a(I318
I34
tp731
a(I318
I35
tp732
a(I318
I36
tp733
a(I318
I37
tp734
a(I318
I38
tp735
a(I318
I39
tp736
a(I318
I40
tp737
a(I318
I41
tp738
a(I318
I42
tp739
a(I318
I43
tp740
a(I318
I79
tp741
a(I319
I1
tp742
a(I319
I2
tp743
a(I319
I3
tp744
a(I319
I27
tp745
a(I319
I28
tp746
a(I319
I29
tp747
a(I319
I30
tp748
a(I319
I31
tp749
a(I319
I32
tp750
a(I319
I33
tp751
a(I319
I34
tp752
a(I319
I35
tp753
a(I319
I36
tp754
a(I319
I37
tp755
a(I319
I38
tp756
a(I319
I39
tp757
a(I319
I40
tp758
a(I319
I41
tp759
a(I319
I42
tp760
a(I319
I43
tp761
a(I319
I44
tp762
a(I319
I79
tp763
a(I320
I0
tp764
a(I320
I1
tp765
a(I320
I2
tp766
a(I320
I3
tp767
a(I320
I27
tp768
a(I320
I28
tp769
a(I320
I29
tp770
a(I320
I30
tp771
a(I320
I31
tp772
a(I320
I32
tp773
a(I320
I33
tp774
a(I320
I34
tp775
a(I320
I35
tp776
a(I320
I36
tp777
a(I320
I37
tp778
a(I320
I38
tp779
a(I320
I39
tp780
a(I320
I40
tp781
a(I320
I41
tp782
a(I320
I42
tp783
a(I320
I43
tp784
a(I320
I44
tp785
a(I320
I45
tp786
a(I320
I79
tp787
a(I320
I80
tp788
a(I321
I26
tp789
a(I321
I27
tp790
a(I321
I28
tp791
a(I321
I29
tp792
a(I321
I30
tp793
a(I321
I31
tp794
a(I321
I32
tp795
a(I321
I33
tp796
a(I321
I34
tp797
a(I321
I35
tp798
a(I321
I36
tp799
a(I321
I37
tp800
a(I321
I38
tp801
a(I321
I39
tp802
a(I321
I40
tp803
a(I321
I41
tp804
a(I321
I42
tp805
a(I321
I43
tp806
a(I321
I44
tp807
a(I321
I45
tp808
a(I321
I46
tp809
a(I321
I47
tp810
a(I321
I78
tp811
a(I321
I79
tp812
a(I322
I26
tp813
a(I322
I27
tp814
a(I322
I28
tp815
a(I322
I29
tp816
a(I322
I30
tp817
a(I322
I31
tp818
a(I322
I32
tp819
a(I322
I33
tp820
a(I322
I34
tp821
a(I322
I35
tp822
a(I322
I36
tp823
a(I322
I37
tp824
a(I322
I38
tp825
a(I322
I39
tp826
a(I322
I40
tp827
a(I322
I41
tp828
a(I322
I42
tp829
a(I322
I43
tp830
a(I322
I44
tp831
a(I322
I45
tp832
a(I322
I46
tp833
a(I322
I47
tp834
a(I322
I48
tp835
a(I322
I49
tp836
a(I322
I50
tp837
a(I322
I51
tp838
a(I322
I53
tp839
a(I322
I54
tp840
a(I322
I55
tp841
a(I322
I56
tp842
a(I322
I78
tp843
a(I322
I79
tp844
a(I323
I25
tp845
a(I323
I26
tp846
a(I323
I27
tp847
a(I323
I28
tp848
a(I323
I29
tp849
a(I323
I30
tp850
a(I323
I31
tp851
a(I323
I32
tp852
a(I323
I33
tp853
a(I323
I34
tp854
a(I323
I35
tp855
a(I323
I36
tp856
a(I323
I37
tp857
a(I323
I38
tp858
a(I323
I39
tp859
a(I323
I40
tp860
a(I323
I41
tp861
a(I323
I42
tp862
a(I323
I43
tp863
a(I323
I44
tp864
a(I323
I45
tp865
a(I323
I46
tp866
a(I323
I47
tp867
a(I323
I48
tp868
a(I323
I49
tp869
a(I323
I50
tp870
a(I323
I51
tp871
a(I323
I52
tp872
a(I323
I53
tp873
a(I323
I54
tp874
a(I323
I55
tp875
a(I323
I56
tp876
a(I323
I57
tp877
a(I323
I77
tp878
a(I323
I78
tp879
a(I323
I79
tp880
a(I324
I24
tp881
a(I324
I25
tp882
a(I324
I26
tp883
a(I324
I27
tp884
a(I324
I28
tp885
a(I324
I29
tp886
a(I324
I30
tp887
a(I324
I31
tp888
a(I324
I32
tp889
a(I324
I33
tp890
a(I324
I34
tp891
a(I324
I35
tp892
a(I324
I36
tp893
a(I324
I37
tp894
a(I324
I38
tp895
a(I324
I39
tp896
a(I324
I40
tp897
a(I324
I41
tp898
a(I324
I42
tp899
a(I324
I43
tp900
a(I324
I44
tp901
a(I324
I45
tp902
a(I324
I46
tp903
a(I324
I47
tp904
a(I324
I48
tp905
a(I324
I49
tp906
a(I324
I50
tp907
a(I324
I51
tp908
a(I324
I52
tp909
a(I324
I53
tp910
a(I324
I54
tp911
a(I324
I55
tp912
a(I324
I56
tp913
a(I324
I57
tp914
a(I324
I58
tp915
a(I324
I76
tp916
a(I324
I77
tp917
a(I324
I78
tp918
a(I324
I79
tp919
a(I325
I23
tp920
a(I325
I24
tp921
a(I325
I25
tp922
a(I325
I26
tp923
a(I325
I27
tp924
a(I325
I28
tp925
a(I325
I29
tp926
a(I325
I30
tp927
a(I325
I31
tp928
a(I325
I32
tp929
a(I325
I33
tp930
a(I325
I34
tp931
a(I325
I35
tp932
a(I325
I36
tp933
a(I325
I37
tp934
a(I325
I38
tp935
a(I325
I39
tp936
a(I325
I40
tp937
a(I325
I41
tp938
a(I325
I42
tp939
a(I325
I43
tp940
a(I325
I44
tp941
a(I325
I45
tp942
a(I325
I46
tp943
a(I325
I47
tp944
a(I325
I48
tp945
a(I325
I49
tp946
a(I325
I50
tp947
a(I325
I51
tp948
a(I325
I53
tp949
a(I325
I54
tp950
a(I325
I55
tp951
a(I325
I56
tp952
a(I325
I57
tp953
a(I325
I58
tp954
a(I325
I59
tp955
a(I325
I75
tp956
a(I325
I76
tp957
a(I325
I77
tp958
a(I325
I78
tp959
a(I325
I79
tp960
a(I326
I22
tp961
a(I326
I23
tp962
a(I326
I24
tp963
a(I326
I25
tp964
a(I326
I26
tp965
a(I326
I27
tp966
a(I326
I28
tp967
a(I326
I29
tp968
a(I326
I30
tp969
a(I326
I31
tp970
a(I326
I32
tp971
a(I326
I33
tp972
a(I326
I34
tp973
a(I326
I35
tp974
a(I326
I36
tp975
a(I326
I37
tp976
a(I326
I38
tp977
a(I326
I39
tp978
a(I326
I40
tp979
a(I326
I41
tp980
a(I326
I42
tp981
a(I326
I43
tp982
a(I326
I44
tp983
a(I326
I45
tp984
a(I326
I46
tp985
a(I326
I47
tp986
a(I326
I57
tp987
a(I326
I58
tp988
a(I326
I59
tp989
a(I326
I60
tp990
a(I326
I74
tp991
a(I326
I75
tp992
a(I326
I76
tp993
a(I326
I77
tp994
a(I326
I78
tp995
a(I326
I79
tp996
a(I327
I20
tp997
a(I327
I21
tp998
a(I327
I22
tp999
a(I327
I23
tp1000
a(I327
I24
tp1001
a(I327
I25
tp1002
a(I327
I26
tp1003
a(I327
I27
tp1004
a(I327
I28
tp1005
a(I327
I29
tp1006
a(I327
I30
tp1007
a(I327
I31
tp1008
a(I327
I32
tp1009
a(I327
I33
tp1010
a(I327
I34
tp1011
a(I327
I35
tp1012
a(I327
I36
tp1013
a(I327
I37
tp1014
a(I327
I38
tp1015
a(I327
I39
tp1016
a(I327
I40
tp1017
a(I327
I41
tp1018
a(I327
I42
tp1019
a(I327
I43
tp1020
a(I327
I44
tp1021
a(I327
I45
tp1022
a(I327
I59
tp1023
a(I327
I60
tp1024
a(I327
I61
tp1025
a(I327
I62
tp1026
a(I327
I72
tp1027
a(I327
I73
tp1028
a(I327
I74
tp1029
a(I327
I75
tp1030
a(I327
I76
tp1031
a(I327
I77
tp1032
a(I327
I78
tp1033
a(I327
I79
tp1034
a(I328
I17
tp1035
a(I328
I18
tp1036
a(I328
I19
tp1037
a(I328
I20
tp1038
a(I328
I21
tp1039
a(I328
I22
tp1040
a(I328
I23
tp1041
a(I328
I24
tp1042
a(I328
I25
tp1043
a(I328
I26
tp1044
a(I328
I27
tp1045
a(I328
I28
tp1046
a(I328
I29
tp1047
a(I328
I30
tp1048
a(I328
I31
tp1049
a(I328
I32
tp1050
a(I328
I33
tp1051
a(I328
I34
tp1052
a(I328
I35
tp1053
a(I328
I36
tp1054
a(I328
I37
tp1055
a(I328
I38
tp1056
a(I328
I39
tp1057
a(I328
I40
tp1058
a(I328
I41
tp1059
a(I328
I42
tp1060
a(I328
I43
tp1061
a(I328
I44
tp1062
a(I328
I60
tp1063
a(I328
I61
tp1064
a(I328
I62
tp1065
a(I328
I63
tp1066
a(I328
I64
tp1067
a(I328
I65
tp1068
a(I328
I66
tp1069
a(I328
I68
tp1070
a(I328
I69
tp1071
a(I328
I70
tp1072
a(I328
I71
tp1073
a(I328
I72
tp1074
a(I328
I73
tp1075
a(I328
I74
tp1076
a(I328
I75
tp1077
a(I328
I76
tp1078
a(I328
I77
tp1079
a(I328
I78
tp1080
a(I328
I79
tp1081
a(I329
I17
tp1082
a(I329
I18
tp1083
a(I329
I19
tp1084
a(I329
I20
tp1085
a(I329
I21
tp1086
a(I329
I22
tp1087
a(I329
I23
tp1088
a(I329
I24
tp1089
a(I329
I25
tp1090
a(I329
I26
tp1091
a(I329
I27
tp1092
a(I329
I28
tp1093
a(I329
I29
tp1094
a(I329
I30
tp1095
a(I329
I31
tp1096
a(I329
I32
tp1097
a(I329
I33
tp1098
a(I329
I34
tp1099
a(I329
I35
tp1100
a(I329
I36
tp1101
a(I329
I37
tp1102
a(I329
I38
tp1103
a(I329
I39
tp1104
a(I329
I40
tp1105
a(I329
I41
tp1106
a(I329
I42
tp1107
a(I329
I43
tp1108
a(I329
I61
tp1109
a(I329
I62
tp1110
a(I329
I63
tp1111
a(I329
I64
tp1112
a(I329
I65
tp1113
a(I329
I66
tp1114
a(I329
I67
tp1115
a(I329
I68
tp1116
a(I329
I69
tp1117
a(I329
I70
tp1118
a(I329
I71
tp1119
a(I329
I72
tp1120
a(I329
I73
tp1121
a(I329
I74
tp1122
a(I329
I75
tp1123
a(I329
I76
tp1124
a(I329
I77
tp1125
a(I329
I78
tp1126
a(I330
I17
tp1127
a(I330
I18
tp1128
a(I330
I19
tp1129
a(I330
I20
tp1130
a(I330
I21
tp1131
a(I330
I22
tp1132
a(I330
I23
tp1133
a(I330
I24
tp1134
a(I330
I25
tp1135
a(I330
I26
tp1136
a(I330
I27
tp1137
a(I330
I28
tp1138
a(I330
I29
tp1139
a(I330
I30
tp1140
a(I330
I31
tp1141
a(I330
I32
tp1142
a(I330
I33
tp1143
a(I330
I34
tp1144
a(I330
I35
tp1145
a(I330
I36
tp1146
a(I330
I37
tp1147
a(I330
I38
tp1148
a(I330
I39
tp1149
a(I330
I40
tp1150
a(I330
I41
tp1151
a(I330
I42
tp1152
a(I330
I62
tp1153
a(I330
I63
tp1154
a(I330
I64
tp1155
a(I330
I65
tp1156
a(I330
I66
tp1157
a(I330
I67
tp1158
a(I330
I68
tp1159
a(I330
I69
tp1160
a(I330
I70
tp1161
a(I330
I71
tp1162
a(I330
I72
tp1163
a(I330
I73
tp1164
a(I330
I74
tp1165
a(I330
I75
tp1166
a(I330
I76
tp1167
a(I330
I77
tp1168
a(I330
I78
tp1169
a(I331
I17
tp1170
a(I331
I18
tp1171
a(I331
I19
tp1172
a(I331
I20
tp1173
a(I331
I21
tp1174
a(I331
I22
tp1175
a(I331
I23
tp1176
a(I331
I24
tp1177
a(I331
I25
tp1178
a(I331
I26
tp1179
a(I331
I27
tp1180
a(I331
I28
tp1181
a(I331
I29
tp1182
a(I331
I30
tp1183
a(I331
I31
tp1184
a(I331
I32
tp1185
a(I331
I33
tp1186
a(I331
I34
tp1187
a(I331
I35
tp1188
a(I331
I36
tp1189
a(I331
I37
tp1190
a(I331
I38
tp1191
a(I331
I39
tp1192
a(I331
I40
tp1193
a(I331
I41
tp1194
a(I331
I63
tp1195
a(I331
I64
tp1196
a(I331
I65
tp1197
a(I331
I66
tp1198
a(I331
I67
tp1199
a(I331
I68
tp1200
a(I331
I69
tp1201
a(I331
I70
tp1202
a(I331
I71
tp1203
a(I331
I72
tp1204
a(I331
I73
tp1205
a(I331
I74
tp1206
a(I331
I75
tp1207
a(I331
I76
tp1208
a(I331
I77
tp1209
a(I331
I78
tp1210
a(I332
I18
tp1211
a(I332
I19
tp1212
a(I332
I20
tp1213
a(I332
I21
tp1214
a(I332
I22
tp1215
a(I332
I23
tp1216
a(I332
I24
tp1217
a(I332
I25
tp1218
a(I332
I26
tp1219
a(I332
I27
tp1220
a(I332
I28
tp1221
a(I332
I29
tp1222
a(I332
I30
tp1223
a(I332
I31
tp1224
a(I332
I32
tp1225
a(I332
I33
tp1226
a(I332
I34
tp1227
a(I332
I35
tp1228
a(I332
I36
tp1229
a(I332
I37
tp1230
a(I332
I38
tp1231
a(I332
I39
tp1232
a(I332
I40
tp1233
a(I332
I41
tp1234
a(I332
I63
tp1235
a(I332
I64
tp1236
a(I332
I65
tp1237
a(I332
I66
tp1238
a(I332
I67
tp1239
a(I332
I68
tp1240
a(I332
I69
tp1241
a(I332
I70
tp1242
a(I332
I71
tp1243
a(I332
I72
tp1244
a(I332
I73
tp1245
a(I332
I74
tp1246
a(I332
I75
tp1247
a(I332
I76
tp1248
a(I332
I77
tp1249
a(I332
I78
tp1250
a(I333
I17
tp1251
a(I333
I18
tp1252
a(I333
I19
tp1253
a(I333
I20
tp1254
a(I333
I21
tp1255
a(I333
I22
tp1256
a(I333
I23
tp1257
a(I333
I24
tp1258
a(I333
I25
tp1259
a(I333
I26
tp1260
a(I333
I27
tp1261
a(I333
I28
tp1262
a(I333
I29
tp1263
a(I333
I30
tp1264
a(I333
I31
tp1265
a(I333
I32
tp1266
a(I333
I33
tp1267
a(I333
I34
tp1268
a(I333
I35
tp1269
a(I333
I36
tp1270
a(I333
I37
tp1271
a(I333
I38
tp1272
a(I333
I39
tp1273
a(I333
I40
tp1274
a(I333
I64
tp1275
a(I333
I65
tp1276
a(I333
I66
tp1277
a(I333
I67
tp1278
a(I333
I68
tp1279
a(I333
I69
tp1280
a(I333
I70
tp1281
a(I333
I71
tp1282
a(I333
I72
tp1283
a(I333
I73
tp1284
a(I333
I74
tp1285
a(I333
I75
tp1286
a(I333
I76
tp1287
a(I333
I77
tp1288
a(I334
I17
tp1289
a(I334
I18
tp1290
a(I334
I19
tp1291
a(I334
I20
tp1292
a(I334
I21
tp1293
a(I334
I22
tp1294
a(I334
I23
tp1295
a(I334
I24
tp1296
a(I334
I25
tp1297
a(I334
I26
tp1298
a(I334
I27
tp1299
a(I334
I28
tp1300
a(I334
I29
tp1301
a(I334
I30
tp1302
a(I334
I31
tp1303
a(I334
I32
tp1304
a(I334
I33
tp1305
a(I334
I34
tp1306
a(I334
I35
tp1307
a(I334
I36
tp1308
a(I334
I37
tp1309
a(I334
I38
tp1310
a(I334
I39
tp1311
a(I334
I40
tp1312
a(I334
I64
tp1313
a(I334
I65
tp1314
a(I334
I66
tp1315
a(I334
I67
tp1316
a(I334
I68
tp1317
a(I334
I69
tp1318
a(I334
I70
tp1319
a(I334
I71
tp1320
a(I334
I72
tp1321
a(I334
I73
tp1322
a(I334
I74
tp1323
a(I334
I75
tp1324
a(I334
I76
tp1325
a(I334
I77
tp1326
a(I335
I17
tp1327
a(I335
I18
tp1328
a(I335
I19
tp1329
a(I335
I20
tp1330
a(I335
I21
tp1331
a(I335
I22
tp1332
a(I335
I23
tp1333
a(I335
I24
tp1334
a(I335
I25
tp1335
a(I335
I26
tp1336
a(I335
I27
tp1337
a(I335
I28
tp1338
a(I335
I29
tp1339
a(I335
I30
tp1340
a(I335
I31
tp1341
a(I335
I32
tp1342
a(I335
I33
tp1343
a(I335
I34
tp1344
a(I335
I35
tp1345
a(I335
I36
tp1346
a(I335
I37
tp1347
a(I335
I38
tp1348
a(I335
I39
tp1349
a(I335
I64
tp1350
a(I335
I65
tp1351
a(I335
I66
tp1352
a(I335
I67
tp1353
a(I335
I68
tp1354
a(I335
I69
tp1355
a(I335
I70
tp1356
a(I335
I71
tp1357
a(I335
I72
tp1358
a(I335
I73
tp1359
a(I335
I74
tp1360
a(I335
I75
tp1361
a(I335
I76
tp1362
a(I335
I77
tp1363
a(I336
I17
tp1364
a(I336
I18
tp1365
a(I336
I19
tp1366
a(I336
I20
tp1367
a(I336
I21
tp1368
a(I336
I22
tp1369
a(I336
I23
tp1370
a(I336
I24
tp1371
a(I336
I25
tp1372
a(I336
I26
tp1373
a(I336
I27
tp1374
a(I336
I28
tp1375
a(I336
I29
tp1376
a(I336
I30
tp1377
a(I336
I31
tp1378
a(I336
I32
tp1379
a(I336
I33
tp1380
a(I336
I34
tp1381
a(I336
I35
tp1382
a(I336
I64
tp1383
a(I336
I65
tp1384
a(I336
I66
tp1385
a(I336
I67
tp1386
a(I336
I68
tp1387
a(I336
I69
tp1388
a(I336
I70
tp1389
a(I336
I71
tp1390
a(I336
I72
tp1391
a(I336
I73
tp1392
a(I336
I74
tp1393
a(I336
I75
tp1394
a(I336
I76
tp1395
a(I337
I16
tp1396
a(I337
I17
tp1397
a(I337
I18
tp1398
a(I337
I19
tp1399
a(I337
I20
tp1400
a(I337
I21
tp1401
a(I337
I22
tp1402
a(I337
I23
tp1403
a(I337
I24
tp1404
a(I337
I25
tp1405
a(I337
I26
tp1406
a(I337
I27
tp1407
a(I337
I28
tp1408
a(I337
I29
tp1409
a(I337
I30
tp1410
a(I337
I31
tp1411
a(I337
I32
tp1412
a(I337
I33
tp1413
a(I337
I65
tp1414
a(I337
I66
tp1415
a(I337
I67
tp1416
a(I337
I68
tp1417
a(I337
I69
tp1418
a(I337
I70
tp1419
a(I337
I71
tp1420
a(I337
I72
tp1421
a(I337
I73
tp1422
a(I337
I74
tp1423
a(I337
I75
tp1424
a(I337
I76
tp1425
a(I338
I16
tp1426
a(I338
I17
tp1427
a(I338
I18
tp1428
a(I338
I19
tp1429
a(I338
I20
tp1430
a(I338
I21
tp1431
a(I338
I22
tp1432
a(I338
I23
tp1433
a(I338
I24
tp1434
a(I338
I25
tp1435
a(I338
I26
tp1436
a(I338
I27
tp1437
a(I338
I28
tp1438
a(I338
I29
tp1439
a(I338
I30
tp1440
a(I338
I31
tp1441
a(I338
I32
tp1442
a(I338
I64
tp1443
a(I338
I65
tp1444
a(I338
I66
tp1445
a(I338
I67
tp1446
a(I338
I68
tp1447
a(I338
I69
tp1448
a(I338
I70
tp1449
a(I338
I71
tp1450
a(I338
I72
tp1451
a(I338
I73
tp1452
a(I338
I74
tp1453
a(I338
I75
tp1454
a(I339
I15
tp1455
a(I339
I16
tp1456
a(I339
I17
tp1457
a(I339
I18
tp1458
a(I339
I19
tp1459
a(I339
I20
tp1460
a(I339
I21
tp1461
a(I339
I22
tp1462
a(I339
I23
tp1463
a(I339
I24
tp1464
a(I339
I25
tp1465
a(I339
I26
tp1466
a(I339
I27
tp1467
a(I339
I28
tp1468
a(I339
I29
tp1469
a(I339
I30
tp1470
a(I339
I31
tp1471
a(I339
I64
tp1472
a(I339
I65
tp1473
a(I339
I66
tp1474
a(I339
I67
tp1475
a(I339
I68
tp1476
a(I339
I69
tp1477
a(I339
I70
tp1478
a(I339
I71
tp1479
a(I339
I72
tp1480
a(I339
I73
tp1481
a(I339
I74
tp1482
a(I339
I75
tp1483
a(I340
I14
tp1484
a(I340
I15
tp1485
a(I340
I16
tp1486
a(I340
I17
tp1487
a(I340
I18
tp1488
a(I340
I19
tp1489
a(I340
I20
tp1490
a(I340
I21
tp1491
a(I340
I22
tp1492
a(I340
I23
tp1493
a(I340
I24
tp1494
a(I340
I25
tp1495
a(I340
I26
tp1496
a(I340
I27
tp1497
a(I340
I28
tp1498
a(I340
I29
tp1499
a(I340
I30
tp1500
a(I340
I64
tp1501
a(I340
I65
tp1502
a(I340
I66
tp1503
a(I340
I67
tp1504
a(I340
I68
tp1505
a(I340
I69
tp1506
a(I340
I70
tp1507
a(I340
I71
tp1508
a(I340
I72
tp1509
a(I340
I73
tp1510
a(I340
I74
tp1511
a(I341
I13
tp1512
a(I341
I14
tp1513
a(I341
I15
tp1514
a(I341
I16
tp1515
a(I341
I17
tp1516
a(I341
I18
tp1517
a(I341
I19
tp1518
a(I341
I20
tp1519
a(I341
I21
tp1520
a(I341
I22
tp1521
a(I341
I23
tp1522
a(I341
I24
tp1523
a(I341
I25
tp1524
a(I341
I26
tp1525
a(I341
I27
tp1526
a(I341
I28
tp1527
a(I341
I29
tp1528
a(I341
I64
tp1529
a(I341
I65
tp1530
a(I341
I66
tp1531
a(I341
I67
tp1532
a(I341
I68
tp1533
a(I341
I69
tp1534
a(I341
I70
tp1535
a(I341
I71
tp1536
a(I341
I72
tp1537
a(I341
I73
tp1538
a(I341
I74
tp1539
a(I342
I12
tp1540
a(I342
I13
tp1541
a(I342
I14
tp1542
a(I342
I15
tp1543
a(I342
I16
tp1544
a(I342
I17
tp1545
a(I342
I18
tp1546
a(I342
I19
tp1547
a(I342
I20
tp1548
a(I342
I21
tp1549
a(I342
I22
tp1550
a(I342
I23
tp1551
a(I342
I24
tp1552
a(I342
I25
tp1553
a(I342
I26
tp1554
a(I342
I27
tp1555
a(I342
I28
tp1556
a(I342
I29
tp1557
a(I342
I63
tp1558
a(I342
I64
tp1559
a(I342
I65
tp1560
a(I342
I66
tp1561
a(I342
I67
tp1562
a(I342
I68
tp1563
a(I342
I69
tp1564
a(I342
I70
tp1565
a(I342
I71
tp1566
a(I342
I72
tp1567
a(I342
I73
tp1568
a(I343
I10
tp1569
a(I343
I11
tp1570
a(I343
I12
tp1571
a(I343
I13
tp1572
a(I343
I14
tp1573
a(I343
I15
tp1574
a(I343
I16
tp1575
a(I343
I17
tp1576
a(I343
I18
tp1577
a(I343
I19
tp1578
a(I343
I20
tp1579
a(I343
I21
tp1580
a(I343
I22
tp1581
a(I343
I23
tp1582
a(I343
I24
tp1583
a(I343
I25
tp1584
a(I343
I26
tp1585
a(I343
I27
tp1586
a(I343
I28
tp1587
a(I343
I63
tp1588
a(I343
I64
tp1589
a(I343
I65
tp1590
a(I343
I66
tp1591
a(I343
I67
tp1592
a(I343
I68
tp1593
a(I343
I69
tp1594
a(I343
I70
tp1595
a(I343
I71
tp1596
a(I343
I72
tp1597
a(I344
I8
tp1598
a(I344
I9
tp1599
a(I344
I10
tp1600
a(I344
I11
tp1601
a(I344
I12
tp1602
a(I344
I13
tp1603
a(I344
I14
tp1604
a(I344
I15
tp1605
a(I344
I16
tp1606
a(I344
I17
tp1607
a(I344
I18
tp1608
a(I344
I19
tp1609
a(I344
I20
tp1610
a(I344
I21
tp1611
a(I344
I22
tp1612
a(I344
I23
tp1613
a(I344
I24
tp1614
a(I344
I25
tp1615
a(I344
I26
tp1616
a(I344
I27
tp1617
a(I344
I28
tp1618
a(I344
I62
tp1619
a(I344
I63
tp1620
a(I344
I64
tp1621
a(I344
I65
tp1622
a(I344
I66
tp1623
a(I344
I67
tp1624
a(I344
I68
tp1625
a(I344
I69
tp1626
a(I344
I70
tp1627
a(I344
I71
tp1628
a(I344
I72
tp1629
a(I345
I9
tp1630
a(I345
I10
tp1631
a(I345
I11
tp1632
a(I345
I12
tp1633
a(I345
I13
tp1634
a(I345
I14
tp1635
a(I345
I15
tp1636
a(I345
I16
tp1637
a(I345
I17
tp1638
a(I345
I18
tp1639
a(I345
I19
tp1640
a(I345
I20
tp1641
a(I345
I21
tp1642
a(I345
I22
tp1643
a(I345
I23
tp1644
a(I345
I24
tp1645
a(I345
I25
tp1646
a(I345
I26
tp1647
a(I345
I27
tp1648
a(I345
I28
tp1649
a(I345
I61
tp1650
a(I345
I62
tp1651
a(I345
I63
tp1652
a(I345
I64
tp1653
a(I345
I65
tp1654
a(I345
I66
tp1655
a(I345
I67
tp1656
a(I345
I68
tp1657
a(I345
I69
tp1658
a(I345
I70
tp1659
a(I345
I71
tp1660
a(I346
I10
tp1661
a(I346
I11
tp1662
a(I346
I12
tp1663
a(I346
I13
tp1664
a(I346
I14
tp1665
a(I346
I15
tp1666
a(I346
I16
tp1667
a(I346
I17
tp1668
a(I346
I18
tp1669
a(I346
I19
tp1670
a(I346
I20
tp1671
a(I346
I21
tp1672
a(I346
I22
tp1673
a(I346
I23
tp1674
a(I346
I24
tp1675
a(I346
I25
tp1676
a(I346
I26
tp1677
a(I346
I27
tp1678
a(I346
I28
tp1679
a(I346
I60
tp1680
a(I346
I61
tp1681
a(I346
I62
tp1682
a(I346
I63
tp1683
a(I346
I64
tp1684
a(I346
I65
tp1685
a(I346
I66
tp1686
a(I346
I67
tp1687
a(I346
I68
tp1688
a(I346
I69
tp1689
a(I346
I70
tp1690
a(I347
I11
tp1691
a(I347
I12
tp1692
a(I347
I13
tp1693
a(I347
I14
tp1694
a(I347
I15
tp1695
a(I347
I16
tp1696
a(I347
I17
tp1697
a(I347
I18
tp1698
a(I347
I19
tp1699
a(I347
I20
tp1700
a(I347
I21
tp1701
a(I347
I22
tp1702
a(I347
I23
tp1703
a(I347
I24
tp1704
a(I347
I25
tp1705
a(I347
I26
tp1706
a(I347
I27
tp1707
a(I347
I59
tp1708
a(I347
I60
tp1709
a(I347
I61
tp1710
a(I347
I62
tp1711
a(I347
I63
tp1712
a(I347
I64
tp1713
a(I347
I65
tp1714
a(I347
I66
tp1715
a(I347
I67
tp1716
a(I347
I68
tp1717
a(I347
I69
tp1718
a(I348
I12
tp1719
a(I348
I13
tp1720
a(I348
I14
tp1721
a(I348
I15
tp1722
a(I348
I16
tp1723
a(I348
I17
tp1724
a(I348
I18
tp1725
a(I348
I19
tp1726
a(I348
I20
tp1727
a(I348
I21
tp1728
a(I348
I22
tp1729
a(I348
I23
tp1730
a(I348
I24
tp1731
a(I348
I25
tp1732
a(I348
I26
tp1733
a(I348
I27
tp1734
a(I348
I28
tp1735
a(I348
I57
tp1736
a(I348
I58
tp1737
a(I348
I59
tp1738
a(I348
I60
tp1739
a(I348
I61
tp1740
a(I348
I62
tp1741
a(I348
I63
tp1742
a(I348
I64
tp1743
a(I348
I65
tp1744
a(I348
I66
tp1745
a(I348
I67
tp1746
a(I348
I68
tp1747
a(I349
I13
tp1748
a(I349
I14
tp1749
a(I349
I15
tp1750
a(I349
I16
tp1751
a(I349
I17
tp1752
a(I349
I18
tp1753
a(I349
I19
tp1754
a(I349
I20
tp1755
a(I349
I21
tp1756
a(I349
I22
tp1757
a(I349
I23
tp1758
a(I349
I24
tp1759
a(I349
I25
tp1760
a(I349
I26
tp1761
a(I349
I27
tp1762
a(I349
I28
tp1763
a(I349
I53
tp1764
a(I349
I54
tp1765
a(I349
I55
tp1766
a(I349
I56
tp1767
a(I349
I57
tp1768
a(I349
I58
tp1769
a(I349
I59
tp1770
a(I349
I60
tp1771
a(I349
I61
tp1772
a(I349
I62
tp1773
a(I349
I63
tp1774
a(I349
I64
tp1775
a(I349
I65
tp1776
a(I349
I66
tp1777
a(I349
I67
tp1778
a(I350
I14
tp1779
a(I350
I15
tp1780
a(I350
I16
tp1781
a(I350
I17
tp1782
a(I350
I18
tp1783
a(I350
I19
tp1784
a(I350
I20
tp1785
a(I350
I21
tp1786
a(I350
I22
tp1787
a(I350
I23
tp1788
a(I350
I24
tp1789
a(I350
I25
tp1790
a(I350
I26
tp1791
a(I350
I27
tp1792
a(I350
I28
tp1793
a(I350
I52
tp1794
a(I350
I53
tp1795
a(I350
I54
tp1796
a(I350
I55
tp1797
a(I350
I56
tp1798
a(I350
I57
tp1799
a(I350
I58
tp1800
a(I350
I59
tp1801
a(I350
I60
tp1802
a(I350
I61
tp1803
a(I350
I62
tp1804
a(I350
I63
tp1805
a(I350
I64
tp1806
a(I350
I65
tp1807
a(I350
I66
tp1808
a(I351
I15
tp1809
a(I351
I16
tp1810
a(I351
I17
tp1811
a(I351
I18
tp1812
a(I351
I19
tp1813
a(I351
I20
tp1814
a(I351
I21
tp1815
a(I351
I22
tp1816
a(I351
I23
tp1817
a(I351
I24
tp1818
a(I351
I25
tp1819
a(I351
I26
tp1820
a(I351
I27
tp1821
a(I351
I28
tp1822
a(I351
I52
tp1823
a(I351
I53
tp1824
a(I351
I54
tp1825
a(I351
I55
tp1826
a(I351
I56
tp1827
a(I351
I57
tp1828
a(I351
I58
tp1829
a(I351
I59
tp1830
a(I351
I60
tp1831
a(I351
I61
tp1832
a(I351
I62
tp1833
a(I351
I63
tp1834
a(I351
I64
tp1835
a(I351
I65
tp1836
a(I352
I16
tp1837
a(I352
I17
tp1838
a(I352
I18
tp1839
a(I352
I19
tp1840
a(I352
I20
tp1841
a(I352
I21
tp1842
a(I352
I22
tp1843
a(I352
I23
tp1844
a(I352
I24
tp1845
a(I352
I25
tp1846
a(I352
I26
tp1847
a(I352
I27
tp1848
a(I352
I28
tp1849
a(I352
I51
tp1850
a(I352
I52
tp1851
a(I352
I53
tp1852
a(I352
I54
tp1853
a(I352
I55
tp1854
a(I352
I56
tp1855
a(I352
I57
tp1856
a(I352
I58
tp1857
a(I352
I59
tp1858
a(I352
I60
tp1859
a(I352
I61
tp1860
a(I352
I62
tp1861
a(I352
I63
tp1862
a(I352
I64
tp1863
a(I353
I18
tp1864
a(I353
I19
tp1865
a(I353
I20
tp1866
a(I353
I21
tp1867
a(I353
I22
tp1868
a(I353
I23
tp1869
a(I353
I24
tp1870
a(I353
I25
tp1871
a(I353
I26
tp1872
a(I353
I27
tp1873
a(I353
I51
tp1874
a(I353
I52
tp1875
a(I353
I53
tp1876
a(I353
I54
tp1877
a(I353
I55
tp1878
a(I353
I56
tp1879
a(I353
I57
tp1880
a(I353
I58
tp1881
a(I353
I59
tp1882
a(I353
I60
tp1883
a(I353
I61
tp1884
a(I353
I62
tp1885
a(I354
I19
tp1886
a(I354
I20
tp1887
a(I354
I21
tp1888
a(I354
I22
tp1889
a(I354
I23
tp1890
a(I354
I24
tp1891
a(I354
I25
tp1892
a(I354
I26
tp1893
a(I354
I27
tp1894
a(I354
I50
tp1895
a(I354
I51
tp1896
a(I354
I52
tp1897
a(I354
I53
tp1898
a(I354
I54
tp1899
a(I354
I55
tp1900
a(I354
I56
tp1901
a(I354
I57
tp1902
a(I354
I58
tp1903
a(I354
I59
tp1904
a(I354
I60
tp1905
a(I354
I61
tp1906
a(I355
I21
tp1907
a(I355
I22
tp1908
a(I355
I23
tp1909
a(I355
I24
tp1910
a(I355
I25
tp1911
a(I355
I26
tp1912
a(I355
I50
tp1913
a(I355
I51
tp1914
a(I355
I52
tp1915
a(I355
I53
tp1916
a(I355
I54
tp1917
a(I355
I55
tp1918
a(I355
I56
tp1919
a(I355
I57
tp1920
a(I355
I58
tp1921
a(I355
I59
tp1922
a(I356
I23
tp1923
a(I356
I24
tp1924
a(I356
I25
tp1925
a(I356
I26
tp1926
a(I356
I50
tp1927
a(I356
I51
tp1928
a(I356
I52
tp1929
a(I356
I53
tp1930
a(I356
I54
tp1931
a(I356
I55
tp1932
a(I356
I56
tp1933
a(I356
I57
tp1934
a(I357
I25
tp1935
a(I357
I26
tp1936
a(I357
I50
tp1937
a(I357
I51
tp1938
a(I357
I52
tp1939
a(I357
I53
tp1940
a(I357
I54
tp1941
a(I357
I55
tp1942
a(I358
I50
tp1943
a(I358
I51
tp1944
a(I358
I52
tp1945
a.I0
.