(lp0
(I300
F-193.0
tp1
a(I287
F-232.0
tp2
a(I329
F-204.0
tp3
a(I333
F-225.0
tp4
a(I307
F-178.0
tp5
a(I303
F-211.0
tp6
a(I295
F-181.0
tp7
a(I337
F-173.0
tp8
a(I277
F-211.0
tp9
a(I349
F-218.0
tp10
a(I321
F-172.0
tp11
a(I345
F-204.0
tp12
a.I1
.(lp0
(lp1
I0
aI0
aI0
aI0
aI0
aI0
aI0
aI0
aI0
aI0
aI0
aI0
aI0
aI0
aI0
aI0
aI0
aI0
aI0
aI0
aI0
aI0
aI0
aI0
aI0
aI0
aI0
aI0
aI0
aI0
aI0
aI0
aI0
aI0
aI0
aI0
aI0
aI0
aI0
aI0
aS'1'
p2
aI0
aI0
aI0
aI0
aI0
aI0
aI0
aI0
aI0
aI0
aI0
aI0
aI0
aI0
aI0
aI0
aI0
aI0
aI0
aI0
aI0
aI0
aI0
aI0
aI0
aI0
aI0
aI0
aI0
aI0
aI0
aI0
aI0
aI0
aI0
aI0
aI0
aI0
aI0
aI0
aa(lp3
I0
aI0
aI0
aI0
aI0
aI0
aI0
aI0
aI0
aI0
aI0
aI0
aI0
aI0
aI0
aI0
aI0
aI0
aI0
aI0
aI0
aI0
aI0
aI0
aI0
aI0
aI0
aI0
aI0
aI0
aI0
aI0
ag2
ag2
ag2
ag2
ag2
ag2
ag2
ag2
ag2
ag2
ag2
ag2
ag2
ag2
ag2
ag2
ag2
aI0
aI0
aI0
aI0
aI0
aI0
aI0
aI0
aI0
aI0
aI0
aI0
aI0
aI0
aI0
aI0
aI0
aI0
aI0
aI0
aI0
aI0
aI0
aI0
aI0
aI0
aI0
aI0
aI0
aI0
aI0
aI0
aa(lp4
I0
aI0
aI0
aI0
aI0
aI0
aI0
aI0
aI0
aI0
aI0
aI0
aI0
aI0
aI0
aI0
aI0
aI0
aI0
aI0
aI0
aI0
aI0
aI0
aI0
aI0
aI0
aI0
ag2
ag2
ag2
ag2
ag2
ag2
ag2
ag2
ag2
ag2
ag2
ag2
ag2
ag2
ag2
ag2
ag2
ag2
ag2
ag2
ag2
ag2
ag2
ag2
ag2
aI0
aI0
aI0
aI0
aI0
aI0
aI0
aI0
aI0
aI0
aI0
aI0
aI0
aI0
aI0
aI0
aI0
aI0
aI0
aI0
aI0
aI0
aI0
aI0
aI0
aI0
aI0
aI0
aa(lp5
I0
aI0
aI0
aI0
aI0
aI0
aI0
aI0
aI0
aI0
aI0
aI0
aI0
aI0
aI0
aI0
aI0
aI0
aI0
aI0
aI0
aI0
aI0
aI0
aI0
ag2
ag2
ag2
ag2
ag2
ag2
ag2
ag2
ag2
ag2
ag2
ag2
ag2
ag2
ag2
ag2
ag2
ag2
ag2
ag2
ag2
ag2
ag2
ag2
ag2
ag2
ag2
ag2
ag2
ag2
ag2
aI0
aI0
aI0
aI0
aI0
aI0
aI0
aI0
aI0
aI0
aI0
aI0
aI0
aI0
aI0
aI0
aI0
aI0
aI0
aI0
aI0
aI0
aI0
aI0
aI0
aa(lp6
I0
aI0
aI0
aI0
aI0
aI0
aI0
aI0
aI0
aI0
aI0
aI0
aI0
aI0
aI0
aI0
aI0
aI0
aI0
aI0
aI0
aI0
aI0
ag2
ag2
ag2
ag2
ag2
ag2
ag2
ag2
ag2
ag2
ag2
ag2
ag2
ag2
ag2
ag2
ag2
ag2
ag2
ag2
ag2
ag2
ag2
ag2
ag2
ag2
ag2
ag2
ag2
ag2
ag2
ag2
ag2
ag2
ag2
aI0
aI0
aI0
aI0
aI0
aI0
aI0
aI0
aI0
aI0
aI0
aI0
aI0
aI0
aI0
aI0
aI0
aI0
aI0
aI0
aI0
aI0
aI0
aa(lp7
I0
aI0
aI0
aI0
aI0
aI0
aI0
aI0
aI0
aI0
aI0
aI0
aI0
aI0
aI0
aI0
aI0
aI0
aI0
aI0
aI0
ag2
ag2
ag2
ag2
ag2
ag2
ag2
ag2
ag2
ag2
ag2
ag2
ag2
ag2
ag2
ag2
ag2
ag2
ag2
ag2
ag2
ag2
ag2
ag2
ag2
ag2
ag2
ag2
ag2
ag2
ag2
ag2
ag2
ag2
ag2
ag2
ag2
ag2
ag2
aI0
aI0
aI0
aI0
aI0
aI0
aI0
aI0
aI0
aI0
aI0
aI0
aI0
aI0
aI0
aI0
aI0
aI0
aI0
aI0
aI0
aa(lp8
I0
aI0
aI0
aI0
aI0
aI0
aI0
aI0
aI0
aI0
aI0
aI0
aI0
aI0
aI0
aI0
aI0
aI0
aI0
ag2
ag2
ag2
ag2
ag2
ag2
ag2
ag2
ag2
ag2
ag2
ag2
ag2
ag2
ag2
ag2
ag2
ag2
ag2
ag2
ag2
ag2
ag2
ag2
ag2
ag2
ag2
ag2
ag2
ag2
ag2
ag2
ag2
ag2
ag2
ag2
ag2
ag2
ag2
ag2
ag2
ag2
ag2
aI0
aI0
aI0
aI0
aI0
aI0
aI0
aI0
aI0
aI0
aI0
aI0
aI0
aI0
aI0
aI0
aI0
aI0
aI0
aa(lp9
I0
aI0
aI0
aI0
aI0
aI0
aI0
aI0
aI0
aI0
aI0
aI0
aI0
aI0
aI0
aI0
aI0
aI0
ag2
ag2
ag2
ag2
ag2
ag2
ag2
ag2
ag2
ag2
ag2
ag2
ag2
ag2
ag2
ag2
ag2
ag2
ag2
ag2
ag2
ag2
ag2
ag2
ag2
ag2
ag2
ag2
ag2
ag2
ag2
ag2
ag2
ag2
ag2
ag2
ag2
ag2
ag2
ag2
ag2
ag2
ag2
ag2
ag2
aI0
aI0
aI0
aI0
aI0
aI0
aI0
aI0
aI0
aI0
aI0
aI0
aI0
aI0
aI0
aI0
aI0
aI0
aa(lp10
I0
aI0
aI0
aI0
aI0
aI0
aI0
aI0
aI0
aI0
aI0
aI0
aI0
aI0
aI0
aI0
ag2
ag2
ag2
ag2
ag2
ag2
ag2
ag2
ag2
ag2
ag2
ag2
ag2
ag2
ag2
ag2
ag2
ag2
ag2
ag2
ag2
ag2
ag2
ag2
ag2
ag2
ag2
ag2
ag2
ag2
ag2
ag2
ag2
ag2
ag2
ag2
ag2
ag2
ag2
ag2
ag2
ag2
ag2
ag2
ag2
ag2
ag2
ag2
ag2
aI0
aI0
aI0
aI0
aI0
aI0
aI0
aI0
aI0
aI0
aI0
aI0
aI0
aI0
aI0
aI0
aa(lp11
I0
aI0
aI0
aI0
aI0
aI0
aI0
aI0
aI0
aI0
aI0
aI0
aI0
aI0
aI0
ag2
ag2
ag2
ag2
ag2
ag2
ag2
ag2
ag2
ag2
ag2
ag2
ag2
ag2
ag2
ag2
ag2
ag2
ag2
ag2
ag2
ag2
ag2
ag2
ag2
ag2
ag2
ag2
ag2
ag2
ag2
ag2
ag2
ag2
ag2
ag2
ag2
ag2
ag2
ag2
ag2
ag2
ag2
ag2
ag2
ag2
ag2
ag2
ag2
ag2
ag2
aI0
aI0
aI0
aI0
aI0
aI0
aI0
aI0
aI0
aI0
aI0
aI0
aI0
aI0
aI0
aa(lp12
I0
aI0
aI0
aI0
aI0
aI0
aI0
aI0
aI0
aI0
aI0
aI0
aI0
aI0
ag2
ag2
ag2
ag2
ag2
ag2
ag2
ag2
ag2
ag2
ag2
ag2
ag2
ag2
ag2
ag2
ag2
ag2
ag2
ag2
ag2
ag2
ag2
ag2
ag2
ag2
ag2
ag2
ag2
ag2
ag2
ag2
ag2
ag2
ag2
ag2
ag2
ag2
ag2
ag2
ag2
ag2
ag2
ag2
ag2
ag2
ag2
ag2
ag2
ag2
ag2
ag2
ag2
aI0
aI0
aI0
aI0
aI0
aI0
aI0
aI0
aI0
aI0
aI0
aI0
aI0
aI0
aa(lp13
I0
aI0
aI0
aI0
aI0
aI0
aI0
aI0
aI0
aI0
aI0
aI0
aI0
ag2
ag2
ag2
ag2
ag2
ag2
ag2
ag2
ag2
ag2
ag2
ag2
ag2
ag2
ag2
ag2
ag2
ag2
ag2
ag2
ag2
ag2
ag2
ag2
ag2
ag2
ag2
ag2
ag2
ag2
ag2
ag2
ag2
ag2
ag2
ag2
ag2
ag2
ag2
ag2
ag2
ag2
ag2
ag2
ag2
ag2
ag2
ag2
ag2
ag2
ag2
ag2
ag2
ag2
ag2
aI0
aI0
aI0
aI0
aI0
aI0
aI0
aI0
aI0
aI0
aI0
aI0
aI0
aa(lp14
I0
aI0
aI0
aI0
aI0
aI0
aI0
aI0
aI0
aI0
aI0
aI0
ag2
ag2
ag2
ag2
ag2
ag2
ag2
ag2
ag2
ag2
ag2
ag2
ag2
ag2
ag2
ag2
ag2
ag2
ag2
ag2
ag2
ag2
ag2
ag2
ag2
ag2
ag2
ag2
ag2
ag2
ag2
ag2
ag2
ag2
ag2
ag2
ag2
ag2
ag2
ag2
ag2
ag2
ag2
ag2
ag2
ag2
ag2
ag2
ag2
ag2
ag2
ag2
ag2
ag2
ag2
ag2
ag2
aI0
aI0
aI0
aI0
aI0
aI0
aI0
aI0
aI0
aI0
aI0
aI0
aa(lp15
I0
aI0
aI0
aI0
aI0
aI0
aI0
aI0
aI0
aI0
aI0
ag2
ag2
ag2
ag2
ag2
ag2
ag2
ag2
ag2
ag2
ag2
ag2
ag2
ag2
ag2
ag2
ag2
ag2
ag2
ag2
ag2
ag2
ag2
ag2
ag2
ag2
ag2
ag2
ag2
ag2
ag2
ag2
ag2
ag2
ag2
ag2
ag2
ag2
ag2
ag2
ag2
ag2
ag2
ag2
ag2
ag2
ag2
ag2
ag2
ag2
ag2
ag2
ag2
ag2
ag2
ag2
ag2
ag2
ag2
aI0
aI0
aI0
aI0
aI0
aI0
aI0
aI0
aI0
aI0
aI0
aa(lp16
I0
aI0
aI0
aI0
aI0
aI0
aI0
aI0
aI0
aI0
ag2
ag2
ag2
ag2
ag2
ag2
ag2
ag2
ag2
ag2
ag2
ag2
ag2
ag2
ag2
ag2
ag2
ag2
ag2
ag2
ag2
ag2
ag2
ag2
ag2
ag2
ag2
ag2
ag2
ag2
ag2
ag2
ag2
ag2
ag2
ag2
ag2
ag2
ag2
ag2
ag2
ag2
ag2
ag2
ag2
ag2
ag2
ag2
ag2
ag2
ag2
ag2
ag2
ag2
ag2
ag2
ag2
ag2
ag2
ag2
ag2
aI0
aI0
aI0
aI0
aI0
aI0
aI0
aI0
aI0
aI0
aa(lp17
I0
aI0
aI0
aI0
aI0
aI0
aI0
aI0
aI0
ag2
ag2
ag2
ag2
ag2
ag2
ag2
ag2
ag2
ag2
ag2
ag2
ag2
ag2
ag2
ag2
ag2
ag2
ag2
ag2
ag2
ag2
ag2
ag2
ag2
ag2
ag2
ag2
ag2
ag2
ag2
ag2
ag2
ag2
ag2
ag2
ag2
ag2
ag2
ag2
ag2
ag2
ag2
ag2
ag2
ag2
ag2
ag2
ag2
ag2
ag2
ag2
ag2
ag2
ag2
ag2
ag2
ag2
ag2
ag2
ag2
ag2
ag2
aI0
aI0
aI0
aI0
aI0
aI0
aI0
aI0
aI0
aa(lp18
I0
aI0
aI0
aI0
aI0
aI0
aI0
aI0
ag2
ag2
ag2
ag2
ag2
ag2
ag2
ag2
ag2
ag2
ag2
ag2
ag2
ag2
ag2
ag2
ag2
ag2
ag2
ag2
ag2
ag2
ag2
ag2
ag2
ag2
ag2
ag2
ag2
ag2
ag2
ag2
ag2
ag2
ag2
ag2
ag2
ag2
ag2
ag2
ag2
ag2
ag2
ag2
ag2
ag2
ag2
ag2
ag2
ag2
ag2
ag2
ag2
ag2
ag2
ag2
ag2
ag2
ag2
ag2
ag2
ag2
ag2
ag2
ag2
aI0
aI0
aI0
aI0
aI0
aI0
aI0
aI0
aa(lp19
I0
aI0
aI0
aI0
aI0
aI0
aI0
aI0
ag2
ag2
ag2
ag2
ag2
ag2
ag2
ag2
ag2
ag2
ag2
ag2
ag2
ag2
ag2
ag2
ag2
ag2
ag2
ag2
ag2
ag2
ag2
ag2
ag2
ag2
ag2
ag2
ag2
ag2
ag2
ag2
ag2
ag2
ag2
ag2
ag2
ag2
ag2
ag2
ag2
ag2
ag2
ag2
ag2
ag2
ag2
ag2
ag2
ag2
ag2
ag2
ag2
ag2
ag2
ag2
ag2
ag2
ag2
ag2
ag2
ag2
ag2
ag2
ag2
aI0
aI0
aI0
aI0
aI0
aI0
aI0
aI0
aa(lp20
I0
aI0
aI0
aI0
aI0
aI0
aI0
ag2
ag2
ag2
ag2
ag2
ag2
ag2
ag2
ag2
ag2
ag2
ag2
ag2
ag2
ag2
ag2
ag2
ag2
ag2
ag2
ag2
ag2
ag2
ag2
ag2
ag2
ag2
ag2
ag2
ag2
ag2
ag2
ag2
ag2
ag2
ag2
ag2
ag2
ag2
ag2
ag2
ag2
ag2
ag2
ag2
ag2
ag2
ag2
ag2
ag2
ag2
ag2
ag2
ag2
ag2
ag2
ag2
ag2
ag2
ag2
ag2
ag2
ag2
ag2
ag2
ag2
ag2
aI0
aI0
aI0
aI0
aI0
aI0
aI0
aa(lp21
I0
aI0
aI0
aI0
aI0
aI0
ag2
ag2
ag2
ag2
ag2
ag2
ag2
ag2
ag2
ag2
ag2
ag2
ag2
ag2
ag2
ag2
ag2
ag2
ag2
ag2
ag2
ag2
ag2
ag2
ag2
ag2
ag2
ag2
ag2
ag2
ag2
ag2
ag2
ag2
ag2
ag2
ag2
ag2
ag2
ag2
ag2
ag2
ag2
ag2
ag2
ag2
ag2
ag2
ag2
ag2
ag2
ag2
ag2
ag2
ag2
ag2
ag2
ag2
ag2
ag2
ag2
ag2
ag2
ag2
ag2
ag2
ag2
ag2
ag2
aI0
aI0
aI0
aI0
aI0
aI0
aa(lp22
I0
aI0
aI0
aI0
aI0
aI0
ag2
ag2
ag2
ag2
ag2
ag2
ag2
ag2
ag2
ag2
ag2
ag2
ag2
ag2
ag2
ag2
ag2
ag2
ag2
ag2
ag2
ag2
ag2
ag2
ag2
ag2
ag2
ag2
ag2
ag2
ag2
ag2
ag2
ag2
ag2
ag2
ag2
ag2
ag2
ag2
ag2
ag2
ag2
ag2
ag2
ag2
ag2
ag2
ag2
ag2
ag2
ag2
ag2
ag2
ag2
ag2
ag2
ag2
ag2
ag2
ag2
ag2
ag2
ag2
ag2
ag2
ag2
ag2
ag2
aI0
aI0
aI0
aI0
aI0
aI0
aa(lp23
I0
aI0
aI0
aI0
aI0
ag2
ag2
ag2
ag2
ag2
ag2
ag2
ag2
ag2
ag2
ag2
ag2
ag2
ag2
ag2
ag2
ag2
ag2
ag2
ag2
ag2
ag2
ag2
ag2
ag2
ag2
ag2
ag2
ag2
ag2
ag2
ag2
ag2
ag2
ag2
ag2
ag2
ag2
ag2
ag2
ag2
ag2
ag2
ag2
ag2
ag2
ag2
ag2
ag2
ag2
ag2
ag2
ag2
ag2
ag2
ag2
ag2
ag2
ag2
ag2
ag2
ag2
ag2
ag2
ag2
ag2
ag2
ag2
ag2
ag2
ag2
aI0
aI0
aI0
aI0
aI0
aa(lp24
I0
aI0
aI0
aI0
aI0
ag2
ag2
ag2
ag2
ag2
ag2
ag2
ag2
ag2
ag2
ag2
ag2
ag2
ag2
ag2
ag2
ag2
ag2
ag2
ag2
ag2
ag2
ag2
ag2
ag2
ag2
ag2
ag2
ag2
ag2
ag2
ag2
ag2
ag2
ag2
ag2
ag2
ag2
ag2
ag2
ag2
ag2
ag2
ag2
ag2
ag2
ag2
ag2
ag2
ag2
ag2
ag2
ag2
ag2
ag2
ag2
ag2
ag2
ag2
ag2
ag2
ag2
ag2
ag2
ag2
ag2
ag2
ag2
ag2
ag2
ag2
aI0
aI0
aI0
aI0
aI0
aa(lp25
I0
aI0
aI0
aI0
ag2
ag2
ag2
ag2
ag2
ag2
ag2
ag2
ag2
ag2
ag2
ag2
ag2
ag2
ag2
ag2
ag2
ag2
ag2
ag2
ag2
ag2
ag2
ag2
ag2
ag2
ag2
ag2
ag2
ag2
ag2
ag2
ag2
ag2
ag2
ag2
ag2
ag2
ag2
ag2
ag2
ag2
ag2
ag2
ag2
ag2
ag2
ag2
ag2
ag2
ag2
ag2
ag2
ag2
ag2
ag2
ag2
ag2
ag2
ag2
ag2
ag2
ag2
ag2
ag2
ag2
ag2
ag2
ag2
ag2
ag2
ag2
ag2
aI0
aI0
aI0
aI0
aa(lp26
I0
aI0
aI0
aI0
ag2
ag2
ag2
ag2
ag2
ag2
ag2
ag2
ag2
ag2
ag2
ag2
ag2
ag2
ag2
ag2
ag2
ag2
ag2
ag2
ag2
ag2
ag2
ag2
ag2
ag2
ag2
ag2
ag2
ag2
ag2
ag2
ag2
ag2
ag2
ag2
ag2
ag2
ag2
ag2
ag2
ag2
ag2
ag2
ag2
ag2
ag2
ag2
ag2
ag2
ag2
ag2
ag2
ag2
ag2
ag2
ag2
ag2
ag2
ag2
ag2
ag2
ag2
ag2
ag2
ag2
ag2
ag2
ag2
ag2
ag2
ag2
ag2
aI0
aI0
aI0
aI0
aa(lp27
I0
aI0
aI0
ag2
ag2
ag2
ag2
ag2
ag2
ag2
ag2
ag2
ag2
ag2
ag2
ag2
ag2
ag2
ag2
ag2
ag2
ag2
ag2
ag2
ag2
ag2
ag2
ag2
ag2
ag2
ag2
ag2
ag2
ag2
ag2
ag2
ag2
ag2
ag2
ag2
ag2
ag2
ag2
ag2
ag2
ag2
ag2
ag2
ag2
ag2
ag2
ag2
ag2
ag2
ag2
ag2
ag2
ag2
ag2
ag2
ag2
ag2
ag2
ag2
ag2
ag2
ag2
ag2
ag2
ag2
ag2
ag2
ag2
ag2
ag2
ag2
ag2
ag2
aI0
aI0
aI0
aa(lp28
I0
aI0
aI0
ag2
ag2
ag2
ag2
ag2
ag2
ag2
ag2
ag2
ag2
ag2
ag2
ag2
ag2
ag2
ag2
ag2
ag2
ag2
ag2
ag2
ag2
ag2
ag2
ag2
ag2
ag2
ag2
ag2
ag2
ag2
ag2
ag2
ag2
ag2
ag2
ag2
ag2
ag2
ag2
ag2
ag2
ag2
ag2
ag2
ag2
ag2
ag2
ag2
ag2
ag2
ag2
ag2
ag2
ag2
ag2
ag2
ag2
ag2
ag2
ag2
ag2
ag2
ag2
ag2
ag2
ag2
ag2
ag2
ag2
ag2
ag2
ag2
ag2
ag2
aI0
aI0
aI0
aa(lp29
I0
aI0
aI0
ag2
ag2
ag2
ag2
ag2
ag2
ag2
ag2
ag2
ag2
ag2
ag2
ag2
ag2
ag2
ag2
ag2
ag2
ag2
ag2
ag2
ag2
ag2
ag2
ag2
ag2
ag2
ag2
ag2
ag2
ag2
ag2
ag2
ag2
ag2
ag2
ag2
ag2
ag2
ag2
ag2
ag2
ag2
ag2
ag2
ag2
ag2
ag2
ag2
ag2
ag2
ag2
ag2
ag2
ag2
ag2
ag2
ag2
ag2
ag2
ag2
ag2
ag2
ag2
ag2
ag2
ag2
ag2
ag2
ag2
ag2
ag2
ag2
ag2
ag2
aI0
aI0
aI0
aa(lp30
I0
aI0
ag2
ag2
ag2
ag2
ag2
ag2
ag2
ag2
ag2
ag2
ag2
ag2
ag2
ag2
ag2
ag2
ag2
ag2
ag2
ag2
ag2
ag2
ag2
ag2
ag2
ag2
ag2
ag2
ag2
ag2
ag2
ag2
ag2
ag2
ag2
ag2
ag2
ag2
ag2
ag2
ag2
ag2
ag2
ag2
ag2
ag2
ag2
ag2
ag2
ag2
ag2
ag2
ag2
ag2
ag2
ag2
ag2
ag2
ag2
ag2
ag2
ag2
ag2
ag2
ag2
ag2
ag2
ag2
ag2
ag2
ag2
ag2
ag2
ag2
ag2
ag2
ag2
aI0
aI0
aa(lp31
I0
aI0
ag2
ag2
ag2
ag2
ag2
ag2
ag2
ag2
ag2
ag2
ag2
ag2
ag2
ag2
ag2
ag2
ag2
ag2
ag2
ag2
ag2
ag2
ag2
ag2
ag2
ag2
ag2
ag2
ag2
ag2
ag2
ag2
ag2
ag2
ag2
ag2
ag2
ag2
ag2
ag2
ag2
ag2
ag2
ag2
ag2
ag2
ag2
ag2
ag2
ag2
ag2
ag2
ag2
ag2
ag2
ag2
ag2
ag2
ag2
ag2
ag2
ag2
ag2
ag2
ag2
ag2
ag2
ag2
ag2
ag2
ag2
ag2
ag2
ag2
ag2
ag2
ag2
aI0
aI0
aa(lp32
I0
aI0
ag2
ag2
ag2
ag2
ag2
ag2
ag2
ag2
ag2
ag2
ag2
ag2
ag2
ag2
ag2
ag2
ag2
ag2
ag2
ag2
ag2
ag2
ag2
ag2
ag2
ag2
ag2
ag2
ag2
ag2
ag2
ag2
ag2
ag2
ag2
ag2
ag2
ag2
ag2
ag2
ag2
ag2
ag2
ag2
ag2
ag2
ag2
ag2
ag2
ag2
ag2
ag2
ag2
ag2
ag2
ag2
ag2
ag2
ag2
ag2
ag2
ag2
ag2
ag2
ag2
ag2
ag2
ag2
ag2
ag2
ag2
ag2
ag2
ag2
ag2
ag2
ag2
aI0
aI0
aa(lp33
I0
aI0
ag2
ag2
ag2
ag2
ag2
ag2
ag2
ag2
ag2
ag2
ag2
ag2
ag2
ag2
ag2
ag2
ag2
ag2
ag2
ag2
ag2
ag2
ag2
ag2
ag2
ag2
ag2
ag2
ag2
ag2
ag2
ag2
ag2
ag2
ag2
ag2
ag2
ag2
ag2
ag2
ag2
ag2
ag2
ag2
ag2
ag2
ag2
ag2
ag2
ag2
ag2
ag2
ag2
ag2
ag2
ag2
ag2
ag2
ag2
ag2
ag2
ag2
ag2
ag2
ag2
ag2
ag2
ag2
ag2
ag2
ag2
ag2
ag2
ag2
ag2
ag2
ag2
aI0
aI0
aa(lp34
I0
ag2
ag2
ag2
ag2
ag2
ag2
ag2
ag2
ag2
ag2
ag2
ag2
ag2
ag2
ag2
ag2
ag2
ag2
ag2
ag2
ag2
ag2
ag2
ag2
ag2
ag2
ag2
ag2
ag2
ag2
ag2
ag2
ag2
ag2
ag2
ag2
ag2
ag2
ag2
ag2
ag2
ag2
ag2
ag2
ag2
ag2
ag2
ag2
ag2
ag2
ag2
ag2
ag2
ag2
ag2
ag2
ag2
ag2
ag2
ag2
ag2
ag2
ag2
ag2
ag2
ag2
ag2
ag2
ag2
ag2
ag2
ag2
ag2
ag2
ag2
ag2
ag2
ag2
ag2
aI0
aa(lp35
I0
ag2
ag2
ag2
ag2
ag2
ag2
ag2
ag2
ag2
ag2
ag2
ag2
ag2
ag2
ag2
ag2
ag2
ag2
ag2
ag2
ag2
ag2
ag2
ag2
ag2
ag2
ag2
ag2
ag2
ag2
ag2
ag2
ag2
ag2
ag2
ag2
ag2
ag2
ag2
ag2
ag2
ag2
ag2
ag2
ag2
ag2
ag2
ag2
ag2
ag2
ag2
ag2
ag2
ag2
ag2
ag2
ag2
ag2
ag2
ag2
ag2
ag2
ag2
ag2
ag2
ag2
ag2
ag2
ag2
ag2
ag2
ag2
ag2
ag2
ag2
ag2
ag2
ag2
ag2
aI0
aa(lp36
I0
ag2
ag2
ag2
ag2
ag2
ag2
ag2
ag2
ag2
ag2
ag2
ag2
ag2
ag2
ag2
ag2
ag2
ag2
ag2
ag2
ag2
ag2
ag2
ag2
ag2
ag2
ag2
ag2
ag2
ag2
ag2
ag2
ag2
ag2
ag2
ag2
ag2
ag2
ag2
ag2
ag2
ag2
ag2
ag2
ag2
ag2
ag2
ag2
ag2
ag2
ag2
ag2
ag2
ag2
ag2
ag2
ag2
ag2
ag2
ag2
ag2
ag2
ag2
ag2
ag2
ag2
ag2
ag2
ag2
ag2
ag2
ag2
ag2
ag2
ag2
ag2
ag2
ag2
ag2
aI0
aa(lp37
I0
ag2
ag2
ag2
ag2
ag2
ag2
ag2
ag2
ag2
ag2
ag2
ag2
ag2
ag2
ag2
ag2
ag2
ag2
ag2
ag2
ag2
ag2
ag2
ag2
ag2
ag2
ag2
ag2
ag2
ag2
ag2
ag2
ag2
ag2
ag2
ag2
ag2
ag2
ag2
ag2
ag2
ag2
ag2
ag2
ag2
ag2
ag2
ag2
ag2
ag2
ag2
ag2
ag2
ag2
ag2
ag2
ag2
ag2
ag2
ag2
ag2
ag2
ag2
ag2
ag2
ag2
ag2
ag2
ag2
ag2
ag2
ag2
ag2
ag2
ag2
ag2
ag2
ag2
ag2
aI0
aa(lp38
I0
ag2
ag2
ag2
ag2
ag2
ag2
ag2
ag2
ag2
ag2
ag2
ag2
ag2
ag2
ag2
ag2
ag2
ag2
ag2
ag2
ag2
ag2
ag2
ag2
ag2
ag2
ag2
ag2
ag2
ag2
ag2
ag2
ag2
ag2
ag2
ag2
ag2
ag2
ag2
ag2
ag2
ag2
ag2
ag2
ag2
ag2
ag2
ag2
ag2
ag2
ag2
ag2
ag2
ag2
ag2
ag2
ag2
ag2
ag2
ag2
ag2
ag2
ag2
ag2
ag2
ag2
ag2
ag2
ag2
ag2
ag2
ag2
ag2
ag2
ag2
ag2
ag2
ag2
ag2
aI0
aa(lp39
I0
ag2
ag2
ag2
ag2
ag2
ag2
ag2
ag2
ag2
ag2
ag2
ag2
ag2
ag2
ag2
ag2
ag2
ag2
ag2
ag2
ag2
ag2
ag2
ag2
ag2
ag2
ag2
ag2
ag2
ag2
ag2
ag2
ag2
ag2
ag2
ag2
ag2
ag2
ag2
ag2
ag2
ag2
ag2
ag2
ag2
ag2
ag2
ag2
ag2
ag2
ag2
ag2
ag2
ag2
ag2
ag2
ag2
ag2
ag2
ag2
ag2
ag2
ag2
ag2
ag2
ag2
ag2
ag2
ag2
ag2
ag2
ag2
ag2
ag2
ag2
ag2
ag2
ag2
ag2
aI0
aa(lp40
I0
ag2
ag2
ag2
ag2
ag2
ag2
ag2
ag2
ag2
ag2
ag2
ag2
ag2
ag2
ag2
ag2
ag2
ag2
ag2
ag2
ag2
ag2
ag2
ag2
ag2
ag2
ag2
ag2
ag2
ag2
ag2
ag2
ag2
ag2
ag2
ag2
ag2
ag2
ag2
ag2
ag2
ag2
ag2
ag2
ag2
ag2
ag2
ag2
ag2
ag2
ag2
ag2
ag2
ag2
ag2
ag2
ag2
ag2
ag2
ag2
ag2
ag2
ag2
ag2
ag2
ag2
ag2
ag2
ag2
ag2
ag2
ag2
ag2
ag2
ag2
ag2
ag2
ag2
ag2
aI0
aa(lp41
I0
ag2
ag2
ag2
ag2
ag2
ag2
ag2
ag2
ag2
ag2
ag2
ag2
ag2
ag2
ag2
ag2
ag2
ag2
ag2
ag2
ag2
ag2
ag2
ag2
ag2
ag2
ag2
ag2
ag2
ag2
ag2
ag2
ag2
ag2
ag2
ag2
ag2
ag2
ag2
ag2
ag2
ag2
ag2
ag2
ag2
ag2
ag2
ag2
ag2
ag2
ag2
ag2
ag2
ag2
ag2
ag2
ag2
ag2
ag2
ag2
ag2
ag2
ag2
ag2
ag2
ag2
ag2
ag2
ag2
ag2
ag2
ag2
ag2
ag2
ag2
ag2
ag2
ag2
ag2
aI0
aa(lp42
g2
ag2
ag2
ag2
ag2
ag2
ag2
ag2
ag2
ag2
ag2
ag2
ag2
ag2
ag2
ag2
ag2
ag2
ag2
ag2
ag2
ag2
ag2
ag2
ag2
ag2
ag2
ag2
ag2
ag2
ag2
ag2
ag2
ag2
ag2
ag2
ag2
ag2
ag2
ag2
ag2
ag2
ag2
ag2
ag2
ag2
ag2
ag2
ag2
ag2
ag2
ag2
ag2
ag2
ag2
ag2
ag2
ag2
ag2
ag2
ag2
ag2
ag2
ag2
ag2
ag2
ag2
ag2
ag2
ag2
ag2
ag2
ag2
ag2
ag2
ag2
ag2
ag2
ag2
ag2
ag2
aa(lp43
I0
ag2
ag2
ag2
ag2
ag2
ag2
ag2
ag2
ag2
ag2
ag2
ag2
ag2
ag2
ag2
ag2
ag2
ag2
ag2
ag2
ag2
ag2
ag2
ag2
ag2
ag2
ag2
ag2
ag2
ag2
ag2
ag2
ag2
ag2
ag2
ag2
ag2
ag2
ag2
ag2
ag2
ag2
ag2
ag2
ag2
ag2
ag2
ag2
ag2
ag2
ag2
ag2
ag2
ag2
ag2
ag2
ag2
ag2
ag2
ag2
ag2
ag2
ag2
ag2
ag2
ag2
ag2
ag2
ag2
ag2
ag2
ag2
ag2
ag2
ag2
ag2
ag2
ag2
ag2
aI0
aa(lp44
I0
ag2
ag2
ag2
ag2
ag2
ag2
ag2
ag2
ag2
ag2
ag2
ag2
ag2
ag2
ag2
ag2
ag2
ag2
ag2
ag2
ag2
ag2
ag2
ag2
ag2
ag2
ag2
ag2
ag2
ag2
ag2
ag2
ag2
ag2
ag2
ag2
ag2
ag2
ag2
ag2
ag2
ag2
ag2
ag2
ag2
ag2
ag2
ag2
ag2
ag2
ag2
ag2
ag2
ag2
ag2
ag2
ag2
ag2
ag2
ag2
ag2
ag2
ag2
ag2
ag2
ag2
ag2
ag2
ag2
ag2
ag2
ag2
ag2
ag2
ag2
ag2
ag2
ag2
ag2
aI0
aa(lp45
I0
ag2
ag2
ag2
ag2
ag2
ag2
ag2
ag2
ag2
ag2
ag2
ag2
ag2
ag2
ag2
ag2
ag2
ag2
ag2
ag2
ag2
ag2
ag2
ag2
ag2
ag2
ag2
ag2
ag2
ag2
ag2
ag2
ag2
ag2
ag2
ag2
ag2
ag2
ag2
ag2
ag2
ag2
ag2
ag2
ag2
ag2
ag2
ag2
ag2
ag2
ag2
ag2
ag2
ag2
ag2
ag2
ag2
ag2
ag2
ag2
ag2
ag2
ag2
ag2
ag2
ag2
ag2
ag2
ag2
ag2
ag2
ag2
ag2
ag2
ag2
ag2
ag2
ag2
ag2
aI0
aa(lp46
I0
ag2
ag2
ag2
ag2
ag2
ag2
ag2
ag2
ag2
ag2
ag2
ag2
ag2
ag2
ag2
ag2
ag2
ag2
ag2
ag2
ag2
ag2
ag2
ag2
ag2
ag2
ag2
ag2
ag2
ag2
ag2
ag2
ag2
ag2
ag2
ag2
ag2
ag2
ag2
ag2
ag2
ag2
ag2
ag2
ag2
ag2
ag2
ag2
ag2
ag2
ag2
ag2
ag2
ag2
ag2
ag2
ag2
ag2
ag2
ag2
ag2
ag2
ag2
ag2
ag2
ag2
ag2
ag2
ag2
ag2
ag2
ag2
ag2
ag2
ag2
ag2
ag2
ag2
ag2
aI0
aa(lp47
I0
ag2
ag2
ag2
ag2
ag2
ag2
ag2
ag2
ag2
ag2
ag2
ag2
ag2
ag2
ag2
ag2
ag2
ag2
ag2
ag2
ag2
ag2
ag2
ag2
ag2
ag2
ag2
ag2
ag2
ag2
ag2
ag2
ag2
ag2
ag2
ag2
ag2
ag2
ag2
ag2
ag2
ag2
ag2
ag2
ag2
ag2
ag2
ag2
ag2
ag2
ag2
ag2
ag2
ag2
ag2
ag2
ag2
ag2
ag2
ag2
ag2
ag2
ag2
ag2
ag2
ag2
ag2
ag2
ag2
ag2
ag2
ag2
ag2
ag2
ag2
ag2
ag2
ag2
ag2
aI0
aa(lp48
I0
ag2
ag2
ag2
ag2
ag2
ag2
ag2
ag2
ag2
ag2
ag2
ag2
ag2
ag2
ag2
ag2
ag2
ag2
ag2
ag2
ag2
ag2
ag2
ag2
ag2
ag2
ag2
ag2
ag2
ag2
ag2
ag2
ag2
ag2
ag2
ag2
ag2
ag2
ag2
ag2
ag2
ag2
ag2
ag2
ag2
ag2
ag2
ag2
ag2
ag2
ag2
ag2
ag2
ag2
ag2
ag2
ag2
ag2
ag2
ag2
ag2
ag2
ag2
ag2
ag2
ag2
ag2
ag2
ag2
ag2
ag2
ag2
ag2
ag2
ag2
ag2
ag2
ag2
ag2
aI0
aa(lp49
I0
ag2
ag2
ag2
ag2
ag2
ag2
ag2
ag2
ag2
ag2
ag2
ag2
ag2
ag2
ag2
ag2
ag2
ag2
ag2
ag2
ag2
ag2
ag2
ag2
ag2
ag2
ag2
ag2
ag2
ag2
ag2
ag2
ag2
ag2
ag2
ag2
ag2
ag2
ag2
ag2
ag2
ag2
ag2
ag2
ag2
ag2
ag2
ag2
ag2
ag2
ag2
ag2
ag2
ag2
ag2
ag2
ag2
ag2
ag2
ag2
ag2
ag2
ag2
ag2
ag2
ag2
ag2
ag2
ag2
ag2
ag2
ag2
ag2
ag2
ag2
ag2
ag2
ag2
ag2
aI0
aa(lp50
I0
ag2
ag2
ag2
ag2
ag2
ag2
ag2
ag2
ag2
ag2
ag2
ag2
ag2
ag2
ag2
ag2
ag2
ag2
ag2
ag2
ag2
ag2
ag2
ag2
ag2
ag2
ag2
ag2
ag2
ag2
ag2
ag2
ag2
ag2
ag2
ag2
ag2
ag2
ag2
ag2
ag2
ag2
ag2
ag2
ag2
ag2
ag2
ag2
ag2
ag2
ag2
ag2
ag2
ag2
ag2
ag2
ag2
ag2
ag2
ag2
ag2
ag2
ag2
ag2
ag2
ag2
ag2
ag2
ag2
ag2
ag2
ag2
ag2
ag2
ag2
ag2
ag2
ag2
ag2
aI0
aa(lp51
I0
aI0
ag2
ag2
ag2
ag2
ag2
ag2
ag2
ag2
ag2
ag2
ag2
ag2
ag2
ag2
ag2
ag2
ag2
ag2
ag2
ag2
ag2
ag2
ag2
ag2
ag2
ag2
ag2
ag2
ag2
ag2
ag2
ag2
ag2
ag2
ag2
ag2
ag2
ag2
ag2
ag2
ag2
ag2
ag2
ag2
ag2
ag2
ag2
ag2
ag2
ag2
ag2
ag2
ag2
ag2
ag2
ag2
ag2
ag2
ag2
ag2
ag2
ag2
ag2
ag2
ag2
ag2
ag2
ag2
ag2
ag2
ag2
ag2
ag2
ag2
ag2
ag2
ag2
aI0
aI0
aa(lp52
I0
aI0
ag2
ag2
ag2
ag2
ag2
ag2
ag2
ag2
ag2
ag2
ag2
ag2
ag2
ag2
ag2
ag2
ag2
ag2
ag2
ag2
ag2
ag2
ag2
ag2
ag2
ag2
ag2
ag2
ag2
ag2
ag2
ag2
ag2
ag2
ag2
ag2
ag2
ag2
ag2
ag2
ag2
ag2
ag2
ag2
ag2
ag2
ag2
ag2
ag2
ag2
ag2
ag2
ag2
ag2
ag2
ag2
ag2
ag2
ag2
ag2
ag2
ag2
ag2
ag2
ag2
ag2
ag2
ag2
ag2
ag2
ag2
ag2
ag2
ag2
ag2
ag2
ag2
aI0
aI0
aa(lp53
I0
aI0
ag2
ag2
ag2
ag2
ag2
ag2
ag2
ag2
ag2
ag2
ag2
ag2
ag2
ag2
ag2
ag2
ag2
ag2
ag2
ag2
ag2
ag2
ag2
ag2
ag2
ag2
ag2
ag2
ag2
ag2
ag2
ag2
ag2
ag2
ag2
ag2
ag2
ag2
ag2
ag2
ag2
ag2
ag2
ag2
ag2
ag2
ag2
ag2
ag2
ag2
ag2
ag2
ag2
ag2
ag2
ag2
ag2
ag2
ag2
ag2
ag2
ag2
ag2
ag2
ag2
ag2
ag2
ag2
ag2
ag2
ag2
ag2
ag2
ag2
ag2
ag2
ag2
aI0
aI0
aa(lp54
I0
aI0
ag2
ag2
ag2
ag2
ag2
ag2
ag2
ag2
ag2
ag2
ag2
ag2
ag2
ag2
ag2
ag2
ag2
ag2
ag2
ag2
ag2
ag2
ag2
ag2
ag2
ag2
ag2
ag2
ag2
ag2
ag2
ag2
ag2
ag2
ag2
ag2
ag2
ag2
ag2
ag2
ag2
ag2
ag2
ag2
ag2
ag2
ag2
ag2
ag2
ag2
ag2
ag2
ag2
ag2
ag2
ag2
ag2
ag2
ag2
ag2
ag2
ag2
ag2
ag2
ag2
ag2
ag2
ag2
ag2
ag2
ag2
ag2
ag2
ag2
ag2
ag2
ag2
aI0
aI0
aa(lp55
I0
aI0
aI0
ag2
ag2
ag2
ag2
ag2
ag2
ag2
ag2
ag2
ag2
ag2
ag2
ag2
ag2
ag2
ag2
ag2
ag2
ag2
ag2
ag2
ag2
ag2
ag2
ag2
ag2
ag2
ag2
ag2
ag2
ag2
ag2
ag2
ag2
ag2
ag2
ag2
ag2
ag2
ag2
ag2
ag2
ag2
ag2
ag2
ag2
ag2
ag2
ag2
ag2
ag2
ag2
ag2
ag2
ag2
ag2
ag2
ag2
ag2
ag2
ag2
ag2
ag2
ag2
ag2
ag2
ag2
ag2
ag2
ag2
ag2
ag2
ag2
ag2
ag2
aI0
aI0
aI0
aa(lp56
I0
aI0
aI0
ag2
ag2
ag2
ag2
ag2
ag2
ag2
ag2
ag2
ag2
ag2
ag2
ag2
ag2
ag2
ag2
ag2
ag2
ag2
ag2
ag2
ag2
ag2
ag2
ag2
ag2
ag2
ag2
ag2
ag2
ag2
ag2
ag2
ag2
ag2
ag2
ag2
ag2
ag2
ag2
ag2
ag2
ag2
ag2
ag2
ag2
ag2
ag2
ag2
ag2
ag2
ag2
ag2
ag2
ag2
ag2
ag2
ag2
ag2
ag2
ag2
ag2
ag2
ag2
ag2
ag2
ag2
ag2
ag2
ag2
ag2
ag2
ag2
ag2
ag2
aI0
aI0
aI0
aa(lp57
I0
aI0
aI0
ag2
ag2
ag2
ag2
ag2
ag2
ag2
ag2
ag2
ag2
ag2
ag2
ag2
ag2
ag2
ag2
ag2
ag2
ag2
ag2
ag2
ag2
ag2
ag2
ag2
ag2
ag2
ag2
ag2
ag2
ag2
ag2
ag2
ag2
ag2
ag2
ag2
ag2
ag2
ag2
ag2
ag2
ag2
ag2
ag2
ag2
ag2
ag2
ag2
ag2
ag2
ag2
ag2
ag2
ag2
ag2
ag2
ag2
ag2
ag2
ag2
ag2
ag2
ag2
ag2
ag2
ag2
ag2
ag2
ag2
ag2
ag2
ag2
ag2
ag2
aI0
aI0
aI0
aa(lp58
I0
aI0
aI0
aI0
ag2
ag2
ag2
ag2
ag2
ag2
ag2
ag2
ag2
ag2
ag2
ag2
ag2
ag2
ag2
ag2
ag2
ag2
ag2
ag2
ag2
ag2
ag2
ag2
ag2
ag2
ag2
ag2
ag2
ag2
ag2
ag2
ag2
ag2
ag2
ag2
ag2
ag2
ag2
ag2
ag2
ag2
ag2
ag2
ag2
ag2
ag2
ag2
ag2
ag2
ag2
ag2
ag2
ag2
ag2
ag2
ag2
ag2
ag2
ag2
ag2
ag2
ag2
ag2
ag2
ag2
ag2
ag2
ag2
ag2
ag2
ag2
ag2
aI0
aI0
aI0
aI0
aa(lp59
I0
aI0
aI0
aI0
ag2
ag2
ag2
ag2
ag2
ag2
ag2
ag2
ag2
ag2
ag2
ag2
ag2
ag2
ag2
ag2
ag2
ag2
ag2
ag2
ag2
ag2
ag2
ag2
ag2
ag2
ag2
ag2
ag2
ag2
ag2
ag2
ag2
ag2
ag2
ag2
ag2
ag2
ag2
ag2
ag2
ag2
ag2
ag2
ag2
ag2
ag2
ag2
ag2
ag2
ag2
ag2
ag2
ag2
ag2
ag2
ag2
ag2
ag2
ag2
ag2
ag2
ag2
ag2
ag2
ag2
ag2
ag2
ag2
ag2
ag2
ag2
ag2
aI0
aI0
aI0
aI0
aa(lp60
I0
aI0
aI0
aI0
aI0
ag2
ag2
ag2
ag2
ag2
ag2
ag2
ag2
ag2
ag2
ag2
ag2
ag2
ag2
ag2
ag2
ag2
ag2
ag2
ag2
ag2
ag2
ag2
ag2
ag2
ag2
ag2
ag2
ag2
ag2
ag2
ag2
ag2
ag2
ag2
ag2
ag2
ag2
ag2
ag2
ag2
ag2
ag2
ag2
ag2
ag2
ag2
ag2
ag2
ag2
ag2
ag2
ag2
ag2
ag2
ag2
ag2
ag2
ag2
ag2
ag2
ag2
ag2
ag2
ag2
ag2
ag2
ag2
ag2
ag2
ag2
aI0
aI0
aI0
aI0
aI0
aa(lp61
I0
aI0
aI0
aI0
aI0
ag2
ag2
ag2
ag2
ag2
ag2
ag2
ag2
ag2
ag2
ag2
ag2
ag2
ag2
ag2
ag2
ag2
ag2
ag2
ag2
ag2
ag2
ag2
ag2
ag2
ag2
ag2
ag2
ag2
ag2
ag2
ag2
ag2
ag2
ag2
ag2
ag2
ag2
ag2
ag2
ag2
ag2
ag2
ag2
ag2
ag2
ag2
ag2
ag2
ag2
ag2
ag2
ag2
ag2
ag2
ag2
ag2
ag2
ag2
ag2
ag2
ag2
ag2
ag2
ag2
ag2
ag2
ag2
ag2
ag2
ag2
aI0
aI0
aI0
aI0
aI0
aa(lp62
I0
aI0
aI0
aI0
aI0
aI0
ag2
ag2
ag2
ag2
ag2
ag2
ag2
ag2
ag2
ag2
ag2
ag2
ag2
ag2
ag2
ag2
ag2
ag2
ag2
ag2
ag2
ag2
ag2
ag2
ag2
ag2
ag2
ag2
ag2
ag2
ag2
ag2
ag2
ag2
ag2
ag2
ag2
ag2
ag2
ag2
ag2
ag2
ag2
ag2
ag2
ag2
ag2
ag2
ag2
ag2
ag2
ag2
ag2
ag2
ag2
ag2
ag2
ag2
ag2
ag2
ag2
ag2
ag2
ag2
ag2
ag2
ag2
ag2
ag2
aI0
aI0
aI0
aI0
aI0
aI0
aa(lp63
I0
aI0
aI0
aI0
aI0
aI0
ag2
ag2
ag2
ag2
ag2
ag2
ag2
ag2
ag2
ag2
ag2
ag2
ag2
ag2
ag2
ag2
ag2
ag2
ag2
ag2
ag2
ag2
ag2
ag2
ag2
ag2
ag2
ag2
ag2
ag2
ag2
ag2
ag2
ag2
ag2
ag2
ag2
ag2
ag2
ag2
ag2
ag2
ag2
ag2
ag2
ag2
ag2
ag2
ag2
ag2
ag2
ag2
ag2
ag2
ag2
ag2
ag2
ag2
ag2
ag2
ag2
ag2
ag2
ag2
ag2
ag2
ag2
ag2
ag2
aI0
aI0
aI0
aI0
aI0
aI0
aa(lp64
I0
aI0
aI0
aI0
aI0
aI0
aI0
ag2
ag2
ag2
ag2
ag2
ag2
ag2
ag2
ag2
ag2
ag2
ag2
ag2
ag2
ag2
ag2
ag2
ag2
ag2
ag2
ag2
ag2
ag2
ag2
ag2
ag2
ag2
ag2
ag2
ag2
ag2
ag2
ag2
ag2
ag2
ag2
ag2
ag2
ag2
ag2
ag2
ag2
ag2
ag2
ag2
ag2
ag2
ag2
ag2
ag2
ag2
ag2
ag2
ag2
ag2
ag2
ag2
ag2
ag2
ag2
ag2
ag2
ag2
ag2
ag2
ag2
ag2
aI0
aI0
aI0
aI0
aI0
aI0
aI0
aa(lp65
I0
aI0
aI0
aI0
aI0
aI0
aI0
aI0
ag2
ag2
ag2
ag2
ag2
ag2
ag2
ag2
ag2
ag2
ag2
ag2
ag2
ag2
ag2
ag2
ag2
ag2
ag2
ag2
ag2
ag2
ag2
ag2
ag2
ag2
ag2
ag2
ag2
ag2
ag2
ag2
ag2
ag2
ag2
ag2
ag2
ag2
ag2
ag2
ag2
ag2
ag2
ag2
ag2
ag2
ag2
ag2
ag2
ag2
ag2
ag2
ag2
ag2
ag2
ag2
ag2
ag2
ag2
ag2
ag2
ag2
ag2
ag2
ag2
aI0
aI0
aI0
aI0
aI0
aI0
aI0
aI0
aa(lp66
I0
aI0
aI0
aI0
aI0
aI0
aI0
aI0
ag2
ag2
ag2
ag2
ag2
ag2
ag2
ag2
ag2
ag2
ag2
ag2
ag2
ag2
ag2
ag2
ag2
ag2
ag2
ag2
ag2
ag2
ag2
ag2
ag2
ag2
ag2
ag2
ag2
ag2
ag2
ag2
ag2
ag2
ag2
ag2
ag2
ag2
ag2
ag2
ag2
ag2
ag2
ag2
ag2
ag2
ag2
ag2
ag2
ag2
ag2
ag2
ag2
ag2
ag2
ag2
ag2
ag2
ag2
ag2
ag2
ag2
ag2
ag2
ag2
aI0
aI0
aI0
aI0
aI0
aI0
aI0
aI0
aa(lp67
I0
aI0
aI0
aI0
aI0
aI0
aI0
aI0
aI0
ag2
ag2
ag2
ag2
ag2
ag2
ag2
ag2
ag2
ag2
ag2
ag2
ag2
ag2
ag2
ag2
ag2
ag2
ag2
ag2
ag2
ag2
ag2
ag2
ag2
ag2
ag2
ag2
ag2
ag2
ag2
ag2
ag2
ag2
ag2
ag2
ag2
ag2
ag2
ag2
ag2
ag2
ag2
ag2
ag2
ag2
ag2
ag2
ag2
ag2
ag2
ag2
ag2
ag2
ag2
ag2
ag2
ag2
ag2
ag2
ag2
ag2
ag2
aI0
aI0
aI0
aI0
aI0
aI0
aI0
aI0
aI0
aa(lp68
I0
aI0
aI0
aI0
aI0
aI0
aI0
aI0
aI0
aI0
ag2
ag2
ag2
ag2
ag2
ag2
ag2
ag2
ag2
ag2
ag2
ag2
ag2
ag2
ag2
ag2
ag2
ag2
ag2
ag2
ag2
ag2
ag2
ag2
ag2
ag2
ag2
ag2
ag2
ag2
ag2
ag2
ag2
ag2
ag2
ag2
ag2
ag2
ag2
ag2
ag2
ag2
ag2
ag2
ag2
ag2
ag2
ag2
ag2
ag2
ag2
ag2
ag2
ag2
ag2
ag2
ag2
ag2
ag2
ag2
ag2
aI0
aI0
aI0
aI0
aI0
aI0
aI0
aI0
aI0
aI0
aa(lp69
I0
aI0
aI0
aI0
aI0
aI0
aI0
aI0
aI0
aI0
aI0
ag2
ag2
ag2
ag2
ag2
ag2
ag2
ag2
ag2
ag2
ag2
ag2
ag2
ag2
ag2
ag2
ag2
ag2
ag2
ag2
ag2
ag2
ag2
ag2
ag2
ag2
ag2
ag2
ag2
ag2
ag2
ag2
ag2
ag2
ag2
ag2
ag2
ag2
ag2
ag2
ag2
ag2
ag2
ag2
ag2
ag2
ag2
ag2
ag2
ag2
ag2
ag2
ag2
ag2
ag2
ag2
ag2
ag2
ag2
aI0
aI0
aI0
aI0
aI0
aI0
aI0
aI0
aI0
aI0
aI0
aa(lp70
I0
aI0
aI0
aI0
aI0
aI0
aI0
aI0
aI0
aI0
aI0
aI0
ag2
ag2
ag2
ag2
ag2
ag2
ag2
ag2
ag2
ag2
ag2
ag2
ag2
ag2
ag2
ag2
ag2
ag2
ag2
ag2
ag2
ag2
ag2
ag2
ag2
ag2
ag2
ag2
ag2
ag2
ag2
ag2
ag2
ag2
ag2
ag2
ag2
ag2
ag2
ag2
ag2
ag2
ag2
ag2
ag2
ag2
ag2
ag2
ag2
ag2
ag2
ag2
ag2
ag2
ag2
ag2
ag2
aI0
aI0
aI0
aI0
aI0
aI0
aI0
aI0
aI0
aI0
aI0
aI0
aa(lp71
I0
aI0
aI0
aI0
aI0
aI0
aI0
aI0
aI0
aI0
aI0
aI0
aI0
ag2
ag2
ag2
ag2
ag2
ag2
ag2
ag2
ag2
ag2
ag2
ag2
ag2
ag2
ag2
ag2
ag2
ag2
ag2
ag2
ag2
ag2
ag2
ag2
ag2
ag2
ag2
ag2
ag2
ag2
ag2
ag2
ag2
ag2
ag2
ag2
ag2
ag2
ag2
ag2
ag2
ag2
ag2
ag2
ag2
ag2
ag2
ag2
ag2
ag2
ag2
ag2
ag2
ag2
ag2
aI0
aI0
aI0
aI0
aI0
aI0
aI0
aI0
aI0
aI0
aI0
aI0
aI0
aa(lp72
I0
aI0
aI0
aI0
aI0
aI0
aI0
aI0
aI0
aI0
aI0
aI0
aI0
aI0
ag2
ag2
ag2
ag2
ag2
ag2
ag2
ag2
ag2
ag2
ag2
ag2
ag2
ag2
ag2
ag2
ag2
ag2
ag2
ag2
ag2
ag2
ag2
ag2
ag2
ag2
ag2
ag2
ag2
ag2
ag2
ag2
ag2
ag2
ag2
ag2
ag2
ag2
ag2
ag2
ag2
ag2
ag2
ag2
ag2
ag2
ag2
ag2
ag2
ag2
ag2
ag2
ag2
aI0
aI0
aI0
aI0
aI0
aI0
aI0
aI0
aI0
aI0
aI0
aI0
aI0
aI0
aa(lp73
I0
aI0
aI0
aI0
aI0
aI0
aI0
aI0
aI0
aI0
aI0
aI0
aI0
aI0
aI0
ag2
ag2
ag2
ag2
ag2
ag2
ag2
ag2
ag2
ag2
ag2
ag2
ag2
ag2
ag2
ag2
ag2
ag2
ag2
ag2
ag2
ag2
ag2
ag2
ag2
ag2
ag2
ag2
ag2
ag2
ag2
ag2
ag2
ag2
ag2
ag2
ag2
ag2
ag2
ag2
ag2
ag2
ag2
ag2
ag2
ag2
ag2
ag2
ag2
ag2
ag2
aI0
aI0
aI0
aI0
aI0
aI0
aI0
aI0
aI0
aI0
aI0
aI0
aI0
aI0
aI0
aa(lp74
I0
aI0
aI0
aI0
aI0
aI0
aI0
aI0
aI0
aI0
aI0
aI0
aI0
aI0
aI0
aI0
ag2
ag2
ag2
ag2
ag2
ag2
ag2
ag2
ag2
ag2
ag2
ag2
ag2
ag2
ag2
ag2
ag2
ag2
ag2
ag2
ag2
ag2
ag2
ag2
ag2
ag2
ag2
ag2
ag2
ag2
ag2
ag2
ag2
ag2
ag2
ag2
ag2
ag2
ag2
ag2
ag2
ag2
ag2
ag2
ag2
ag2
ag2
ag2
ag2
aI0
aI0
aI0
aI0
aI0
aI0
aI0
aI0
aI0
aI0
aI0
aI0
aI0
aI0
aI0
aI0
aa(lp75
I0
aI0
aI0
aI0
aI0
aI0
aI0
aI0
aI0
aI0
aI0
aI0
aI0
aI0
aI0
aI0
aI0
aI0
ag2
ag2
ag2
ag2
ag2
ag2
ag2
ag2
ag2
ag2
ag2
ag2
ag2
ag2
ag2
ag2
ag2
ag2
ag2
ag2
ag2
ag2
ag2
ag2
ag2
ag2
ag2
ag2
ag2
ag2
ag2
ag2
ag2
ag2
ag2
ag2
ag2
ag2
ag2
ag2
ag2
ag2
ag2
ag2
ag2
aI0
aI0
aI0
aI0
aI0
aI0
aI0
aI0
aI0
aI0
aI0
aI0
aI0
aI0
aI0
aI0
aI0
aI0
aa(lp76
I0
aI0
aI0
aI0
aI0
aI0
aI0
aI0
aI0
aI0
aI0
aI0
aI0
aI0
aI0
aI0
aI0
aI0
aI0
ag2
ag2
ag2
ag2
ag2
ag2
ag2
ag2
ag2
ag2
ag2
ag2
ag2
ag2
ag2
ag2
ag2
ag2
ag2
ag2
ag2
ag2
ag2
ag2
ag2
ag2
ag2
ag2
ag2
ag2
ag2
ag2
ag2
ag2
ag2
ag2
ag2
ag2
ag2
ag2
ag2
ag2
ag2
aI0
aI0
aI0
aI0
aI0
aI0
aI0
aI0
aI0
aI0
aI0
aI0
aI0
aI0
aI0
aI0
aI0
aI0
aI0
aa(lp77
I0
aI0
aI0
aI0
aI0
aI0
aI0
aI0
aI0
aI0
aI0
aI0
aI0
aI0
aI0
aI0
aI0
aI0
aI0
aI0
aI0
ag2
ag2
ag2
ag2
ag2
ag2
ag2
ag2
ag2
ag2
ag2
ag2
ag2
ag2
ag2
ag2
ag2
ag2
ag2
ag2
ag2
ag2
ag2
ag2
ag2
ag2
ag2
ag2
ag2
ag2
ag2
ag2
ag2
ag2
ag2
ag2
ag2
ag2
ag2
aI0
aI0
aI0
aI0
aI0
aI0
aI0
aI0
aI0
aI0
aI0
aI0
aI0
aI0
aI0
aI0
aI0
aI0
aI0
aI0
aI0
aa(lp78
I0
aI0
aI0
aI0
aI0
aI0
aI0
aI0
aI0
aI0
aI0
aI0
aI0
aI0
aI0
aI0
aI0
aI0
aI0
aI0
aI0
aI0
aI0
ag2
ag2
ag2
ag2
ag2
ag2
ag2
ag2
ag2
ag2
ag2
ag2
ag2
ag2
ag2
ag2
ag2
ag2
ag2
ag2
ag2
ag2
ag2
ag2
ag2
ag2
ag2
ag2
ag2
ag2
ag2
ag2
ag2
ag2
ag2
aI0
aI0
aI0
aI0
aI0
aI0
aI0
aI0
aI0
aI0
aI0
aI0
aI0
aI0
aI0
aI0
aI0
aI0
aI0
aI0
aI0
aI0
aI0
aa(lp79
I0
aI0
aI0
aI0
aI0
aI0
aI0
aI0
aI0
aI0
aI0
aI0
aI0
aI0
aI0
aI0
aI0
aI0
aI0
aI0
aI0
aI0
aI0
aI0
aI0
ag2
ag2
ag2
ag2
ag2
ag2
ag2
ag2
ag2
ag2
ag2
ag2
ag2
ag2
ag2
ag2
ag2
ag2
ag2
ag2
ag2
ag2
ag2
ag2
ag2
ag2
ag2
ag2
ag2
ag2
ag2
aI0
aI0
aI0
aI0
aI0
aI0
aI0
aI0
aI0
aI0
aI0
aI0
aI0
aI0
aI0
aI0
aI0
aI0
aI0
aI0
aI0
aI0
aI0
aI0
aI0
aa(lp80
I0
aI0
aI0
aI0
aI0
aI0
aI0
aI0
aI0
aI0
aI0
aI0
aI0
aI0
aI0
aI0
aI0
aI0
aI0
aI0
aI0
aI0
aI0
aI0
aI0
aI0
aI0
aI0
ag2
ag2
ag2
ag2
ag2
ag2
ag2
ag2
ag2
ag2
ag2
ag2
ag2
ag2
ag2
ag2
ag2
ag2
ag2
ag2
ag2
ag2
ag2
ag2
ag2
aI0
aI0
aI0
aI0
aI0
aI0
aI0
aI0
aI0
aI0
aI0
aI0
aI0
aI0
aI0
aI0
aI0
aI0
aI0
aI0
aI0
aI0
aI0
aI0
aI0
aI0
aI0
aI0
aa(lp81
I0
aI0
aI0
aI0
aI0
aI0
aI0
aI0
aI0
aI0
aI0
aI0
aI0
aI0
aI0
aI0
aI0
aI0
aI0
aI0
aI0
aI0
aI0
aI0
aI0
aI0
aI0
aI0
aI0
aI0
aI0
aI0
ag2
ag2
ag2
ag2
ag2
ag2
ag2
ag2
ag2
ag2
ag2
ag2
ag2
ag2
ag2
ag2
ag2
aI0
aI0
aI0
aI0
aI0
aI0
aI0
aI0
aI0
aI0
aI0
aI0
aI0
aI0
aI0
aI0
aI0
aI0
aI0
aI0
aI0
aI0
aI0
aI0
aI0
aI0
aI0
aI0
aI0
aI0
aI0
aI0
aa(lp82
I0
aI0
aI0
aI0
aI0
aI0
aI0
aI0
aI0
aI0
aI0
aI0
aI0
aI0
aI0
aI0
aI0
aI0
aI0
aI0
aI0
aI0
aI0
aI0
aI0
aI0
aI0
aI0
aI0
aI0
aI0
aI0
aI0
aI0
aI0
aI0
aI0
aI0
aI0
aI0
ag2
aI0
aI0
aI0
aI0
aI0
aI0
aI0
aI0
aI0
aI0
aI0
aI0
aI0
aI0
aI0
aI0
aI0
aI0
aI0
aI0
aI0
aI0
aI0
aI0
aI0
aI0
aI0
aI0
aI0
aI0
aI0
aI0
aI0
aI0
aI0
aI0
aI0
aI0
aI0
aI0
aa.(I312
F-203.0
I40
tp0
.(lp0
(I273
F-199.0
tp1
a(I273
F-198.0
tp2
a(I273
F-197.0
tp3
a(I273
F-196.0
tp4
a(I273
F-195.0
tp5
a(I274
F-199.0
tp6
a(I274
F-198.0
tp7
a(I274
F-197.0
tp8
a(I274
F-196.0
tp9
a(I274
F-195.0
tp10
a(I274
F-194.0
tp11
a(I274
F-193.0
tp12
a(I274
F-192.0
tp13
a(I274
F-191.0
tp14
a(I275
F-199.0
tp15
a(I275
F-198.0
tp16
a(I275
F-197.0
tp17
a(I275
F-196.0
tp18
a(I275
F-195.0
tp19
a(I275
F-194.0
tp20
a(I275
F-193.0
tp21
a(I275
F-192.0
tp22
a(I275
F-191.0
tp23
a(I275
F-190.0
tp24
a(I275
F-189.0
tp25
a(I275
F-188.0
tp26
a(I276
F-199.0
tp27
a(I276
F-198.0
tp28
a(I276
F-197.0
tp29
a(I276
F-196.0
tp30
a(I276
F-195.0
tp31
a(I276
F-194.0
tp32
a(I276
F-193.0
tp33
a(I276
F-192.0
tp34
a(I276
F-191.0
tp35
a(I276
F-190.0
tp36
a(I276
F-189.0
tp37
a(I276
F-188.0
tp38
a(I276
F-187.0
tp39
a(I276
F-186.0
tp40
a(I277
F-198.0
tp41
a(I277
F-197.0
tp42
a(I277
F-196.0
tp43
a(I277
F-195.0
tp44
a(I277
F-194.0
tp45
a(I277
F-193.0
tp46
a(I277
F-192.0
tp47
a(I277
F-191.0
tp48
a(I277
F-190.0
tp49
a(I277
F-189.0
tp50
a(I277
F-188.0
tp51
a(I277
F-187.0
tp52
a(I277
F-186.0
tp53
a(I277
F-185.0
tp54
a(I277
F-184.0
tp55
a(I278
F-224.0
tp56
a(I278
F-223.0
tp57
a(I278
F-199.0
tp58
a(I278
F-198.0
tp59
a(I278
F-197.0
tp60
a(I278
F-196.0
tp61
a(I278
F-195.0
tp62
a(I278
F-194.0
tp63
a(I278
F-193.0
tp64
a(I278
F-192.0
tp65
a(I278
F-191.0
tp66
a(I278
F-190.0
tp67
a(I278
F-189.0
tp68
a(I278
F-188.0
tp69
a(I278
F-187.0
tp70
a(I278
F-186.0
tp71
a(I278
F-185.0
tp72
a(I278
F-184.0
tp73
a(I278
F-183.0
tp74
a(I278
F-182.0
tp75
a(I279
F-223.0
tp76
a(I279
F-199.0
tp77
a(I279
F-198.0
tp78
a(I279
F-197.0
tp79
a(I279
F-196.0
tp80
a(I279
F-195.0
tp81
a(I279
F-194.0
tp82
a(I279
F-193.0
tp83
a(I279
F-192.0
tp84
a(I279
F-191.0
tp85
a(I279
F-190.0
tp86
a(I279
F-189.0
tp87
a(I279
F-188.0
tp88
a(I279
F-187.0
tp89
a(I279
F-186.0
tp90
a(I279
F-185.0
tp91
a(I279
F-184.0
tp92
a(I279
F-183.0
tp93
a(I279
F-182.0
tp94
a(I279
F-181.0
tp95
a(I280
F-199.0
tp96
a(I280
F-198.0
tp97
a(I280
F-197.0
tp98
a(I280
F-196.0
tp99
a(I280
F-195.0
tp100
a(I280
F-194.0
tp101
a(I280
F-193.0
tp102
a(I280
F-192.0
tp103
a(I280
F-191.0
tp104
a(I280
F-190.0
tp105
a(I280
F-189.0
tp106
a(I280
F-188.0
tp107
a(I280
F-187.0
tp108
a(I280
F-186.0
tp109
a(I280
F-185.0
tp110
a(I280
F-184.0
tp111
a(I280
F-183.0
tp112
a(I280
F-182.0
tp113
a(I280
F-181.0
tp114
a(I280
F-180.0
tp115
a(I280
F-179.0
tp116
a(I281
F-199.0
tp117
a(I281
F-198.0
tp118
a(I281
F-197.0
tp119
a(I281
F-196.0
tp120
a(I281
F-195.0
tp121
a(I281
F-194.0
tp122
a(I281
F-193.0
tp123
a(I281
F-192.0
tp124
a(I281
F-191.0
tp125
a(I281
F-190.0
tp126
a(I281
F-189.0
tp127
a(I281
F-188.0
tp128
a(I281
F-187.0
tp129
a(I281
F-186.0
tp130
a(I281
F-185.0
tp131
a(I281
F-184.0
tp132
a(I281
F-183.0
tp133
a(I281
F-182.0
tp134
a(I281
F-181.0
tp135
a(I281
F-180.0
tp136
a(I281
F-179.0
tp137
a(I281
F-178.0
tp138
a(I282
F-200.0
tp139
a(I282
F-199.0
tp140
a(I282
F-198.0
tp141
a(I282
F-197.0
tp142
a(I282
F-196.0
tp143
a(I282
F-195.0
tp144
a(I282
F-194.0
tp145
a(I282
F-193.0
tp146
a(I282
F-192.0
tp147
a(I282
F-191.0
tp148
a(I282
F-190.0
tp149
a(I282
F-189.0
tp150
a(I282
F-188.0
tp151
a(I282
F-187.0
tp152
a(I282
F-186.0
tp153
a(I282
F-185.0
tp154
a(I282
F-184.0
tp155
a(I282
F-183.0
tp156
a(I282
F-182.0
tp157
a(I282
F-181.0
tp158
a(I282
F-180.0
tp159
a(I282
F-179.0
tp160
a(I282
F-178.0
tp161
a(I282
F-177.0
tp162
a(I283
F-200.0
tp163
a(I283
F-199.0
tp164
a(I283
F-198.0
tp165
a(I283
F-197.0
tp166
a(I283
F-196.0
tp167
a(I283
F-195.0
tp168
a(I283
F-194.0
tp169
a(I283
F-193.0
tp170
a(I283
F-192.0
tp171
a(I283
F-191.0
tp172
a(I283
F-190.0
tp173
a(I283
F-189.0
tp174
a(I283
F-188.0
tp175
a(I283
F-187.0
tp176
a(I283
F-186.0
tp177
a(I283
F-185.0
tp178
a(I283
F-184.0
tp179
a(I283
F-183.0
tp180
a(I283
F-182.0
tp181
a(I283
F-180.0
tp182
a(I283
F-179.0
tp183
a(I283
F-178.0
tp184
a(I283
F-177.0
tp185
a(I283
F-176.0
tp186
a(I284
F-201.0
tp187
a(I284
F-200.0
tp188
a(I284
F-199.0
tp189
a(I284
F-198.0
tp190
a(I284
F-197.0
tp191
a(I284
F-196.0
tp192
a(I284
F-195.0
tp193
a(I284
F-194.0
tp194
a(I284
F-193.0
tp195
a(I284
F-192.0
tp196
a(I284
F-191.0
tp197
a(I284
F-190.0
tp198
a(I284
F-189.0
tp199
a(I284
F-188.0
tp200
a(I284
F-187.0
tp201
a(I284
F-186.0
tp202
a(I284
F-176.0
tp203
a(I284
F-175.0
tp204
a(I285
F-220.0
tp205
a(I285
F-202.0
tp206
a(I285
F-201.0
tp207
a(I285
F-200.0
tp208
a(I285
F-199.0
tp209
a(I285
F-198.0
tp210
a(I285
F-197.0
tp211
a(I285
F-196.0
tp212
a(I285
F-195.0
tp213
a(I285
F-194.0
tp214
a(I285
F-193.0
tp215
a(I285
F-192.0
tp216
a(I285
F-191.0
tp217
a(I285
F-190.0
tp218
a(I285
F-189.0
tp219
a(I285
F-188.0
tp220
a(I285
F-174.0
tp221
a(I286
F-220.0
tp222
a(I286
F-219.0
tp223
a(I286
F-203.0
tp224
a(I286
F-202.0
tp225
a(I286
F-201.0
tp226
a(I286
F-200.0
tp227
a(I286
F-199.0
tp228
a(I286
F-198.0
tp229
a(I286
F-197.0
tp230
a(I286
F-196.0
tp231
a(I286
F-195.0
tp232
a(I286
F-194.0
tp233
a(I286
F-193.0
tp234
a(I286
F-192.0
tp235
a(I286
F-191.0
tp236
a(I286
F-190.0
tp237
a(I286
F-189.0
tp238
a(I286
F-173.0
tp239
a(I287
F-219.0
tp240
a(I287
F-218.0
tp241
a(I287
F-204.0
tp242
a(I287
F-203.0
tp243
a(I287
F-202.0
tp244
a(I287
F-201.0
tp245
a(I287
F-200.0
tp246
a(I287
F-199.0
tp247
a(I287
F-198.0
tp248
a(I287
F-197.0
tp249
a(I287
F-196.0
tp250
a(I287
F-195.0
tp251
a(I287
F-194.0
tp252
a(I287
F-193.0
tp253
a(I287
F-192.0
tp254
a(I287
F-191.0
tp255
a(I287
F-190.0
tp256
a(I287
F-172.0
tp257
a(I288
F-220.0
tp258
a(I288
F-219.0
tp259
a(I288
F-218.0
tp260
a(I288
F-217.0
tp261
a(I288
F-216.0
tp262
a(I288
F-206.0
tp263
a(I288
F-205.0
tp264
a(I288
F-204.0
tp265
a(I288
F-203.0
tp266
a(I288
F-202.0
tp267
a(I288
F-201.0
tp268
a(I288
F-200.0
tp269
a(I288
F-199.0
tp270
a(I288
F-198.0
tp271
a(I288
F-197.0
tp272
a(I288
F-196.0
tp273
a(I288
F-195.0
tp274
a(I288
F-194.0
tp275
a(I288
F-192.0
tp276
a(I288
F-191.0
tp277
a(I288
F-171.0
tp278
a(I289
F-220.0
tp279
a(I289
F-219.0
tp280
a(I289
F-218.0
tp281
a(I289
F-217.0
tp282
a(I289
F-216.0
tp283
a(I289
F-215.0
tp284
a(I289
F-214.0
tp285
a(I289
F-213.0
tp286
a(I289
F-212.0
tp287
a(I289
F-210.0
tp288
a(I289
F-209.0
tp289
a(I289
F-208.0
tp290
a(I289
F-207.0
tp291
a(I289
F-206.0
tp292
a(I289
F-205.0
tp293
a(I289
F-204.0
tp294
a(I289
F-203.0
tp295
a(I289
F-202.0
tp296
a(I289
F-201.0
tp297
a(I289
F-200.0
tp298
a(I289
F-199.0
tp299
a(I289
F-198.0
tp300
a(I290
F-220.0
tp301
a(I290
F-219.0
tp302
a(I290
F-218.0
tp303
a(I290
F-217.0
tp304
a(I290
F-216.0
tp305
a(I290
F-215.0
tp306
a(I290
F-214.0
tp307
a(I290
F-213.0
tp308
a(I290
F-212.0
tp309
a(I290
F-211.0
tp310
a(I290
F-210.0
tp311
a(I290
F-209.0
tp312
a(I290
F-208.0
tp313
a(I290
F-207.0
tp314
a(I290
F-206.0
tp315
a(I290
F-205.0
tp316
a(I290
F-204.0
tp317
a(I290
F-203.0
tp318
a(I290
F-202.0
tp319
a(I290
F-201.0
tp320
a(I290
F-200.0
tp321
a(I290
F-170.0
tp322
a(I291
F-220.0
tp323
a(I291
F-219.0
tp324
a(I291
F-218.0
tp325
a(I291
F-217.0
tp326
a(I291
F-216.0
tp327
a(I291
F-215.0
tp328
a(I291
F-214.0
tp329
a(I291
F-213.0
tp330
a(I291
F-212.0
tp331
a(I291
F-210.0
tp332
a(I291
F-209.0
tp333
a(I291
F-208.0
tp334
a(I291
F-207.0
tp335
a(I291
F-206.0
tp336
a(I291
F-205.0
tp337
a(I291
F-204.0
tp338
a(I291
F-203.0
tp339
a(I291
F-202.0
tp340
a(I291
F-201.0
tp341
a(I291
F-169.0
tp342
a(I292
F-221.0
tp343
a(I292
F-220.0
tp344
a(I292
F-219.0
tp345
a(I292
F-218.0
tp346
a(I292
F-217.0
tp347
a(I292
F-216.0
tp348
a(I292
F-206.0
tp349
a(I292
F-205.0
tp350
a(I292
F-204.0
tp351
a(I292
F-203.0
tp352
a(I292
F-202.0
tp353
a(I292
F-169.0
tp354
a(I293
F-221.0
tp355
a(I293
F-220.0
tp356
a(I293
F-219.0
tp357
a(I293
F-218.0
tp358
a(I293
F-204.0
tp359
a(I293
F-203.0
tp360
a(I293
F-169.0
tp361
a(I293
F-168.0
tp362
a(I294
F-222.0
tp363
a(I294
F-221.0
tp364
a(I294
F-220.0
tp365
a(I294
F-219.0
tp366
a(I294
F-169.0
tp367
a(I294
F-168.0
tp368
a(I295
F-223.0
tp369
a(I295
F-222.0
tp370
a(I295
F-221.0
tp371
a(I295
F-220.0
tp372
a(I295
F-168.0
tp373
a(I295
F-167.0
tp374
a(I296
F-224.0
tp375
a(I296
F-223.0
tp376
a(I296
F-222.0
tp377
a(I296
F-221.0
tp378
a(I296
F-169.0
tp379
a(I296
F-168.0
tp380
a(I296
F-167.0
tp381
a(I297
F-240.0
tp382
a(I297
F-239.0
tp383
a(I297
F-225.0
tp384
a(I297
F-224.0
tp385
a(I297
F-223.0
tp386
a(I297
F-222.0
tp387
a(I297
F-169.0
tp388
a(I297
F-168.0
tp389
a(I297
F-167.0
tp390
a(I297
F-166.0
tp391
a(I298
F-240.0
tp392
a(I298
F-239.0
tp393
a(I298
F-238.0
tp394
a(I298
F-237.0
tp395
a(I298
F-227.0
tp396
a(I298
F-226.0
tp397
a(I298
F-225.0
tp398
a(I298
F-224.0
tp399
a(I298
F-223.0
tp400
a(I298
F-222.0
tp401
a(I298
F-169.0
tp402
a(I298
F-168.0
tp403
a(I298
F-167.0
tp404
a(I298
F-166.0
tp405
a(I299
F-240.0
tp406
a(I299
F-239.0
tp407
a(I299
F-238.0
tp408
a(I299
F-237.0
tp409
a(I299
F-236.0
tp410
a(I299
F-235.0
tp411
a(I299
F-234.0
tp412
a(I299
F-233.0
tp413
a(I299
F-231.0
tp414
a(I299
F-230.0
tp415
a(I299
F-229.0
tp416
a(I299
F-228.0
tp417
a(I299
F-227.0
tp418
a(I299
F-226.0
tp419
a(I299
F-225.0
tp420
a(I299
F-224.0
tp421
a(I299
F-223.0
tp422
a(I299
F-169.0
tp423
a(I299
F-168.0
tp424
a(I299
F-167.0
tp425
a(I299
F-166.0
tp426
a(I300
F-241.0
tp427
a(I300
F-240.0
tp428
a(I300
F-239.0
tp429
a(I300
F-238.0
tp430
a(I300
F-237.0
tp431
a(I300
F-236.0
tp432
a(I300
F-235.0
tp433
a(I300
F-234.0
tp434
a(I300
F-233.0
tp435
a(I300
F-232.0
tp436
a(I300
F-231.0
tp437
a(I300
F-230.0
tp438
a(I300
F-229.0
tp439
a(I300
F-228.0
tp440
a(I300
F-227.0
tp441
a(I300
F-226.0
tp442
a(I300
F-225.0
tp443
a(I300
F-224.0
tp444
a(I300
F-223.0
tp445
a(I300
F-168.0
tp446
a(I300
F-167.0
tp447
a(I300
F-166.0
tp448
a(I300
F-165.0
tp449
a(I301
F-241.0
tp450
a(I301
F-240.0
tp451
a(I301
F-239.0
tp452
a(I301
F-238.0
tp453
a(I301
F-237.0
tp454
a(I301
F-236.0
tp455
a(I301
F-235.0
tp456
a(I301
F-234.0
tp457
a(I301
F-233.0
tp458
a(I301
F-232.0
tp459
a(I301
F-231.0
tp460
a(I301
F-230.0
tp461
a(I301
F-229.0
tp462
a(I301
F-228.0
tp463
a(I301
F-227.0
tp464
a(I301
F-226.0
tp465
a(I301
F-225.0
tp466
a(I301
F-224.0
tp467
a(I301
F-223.0
tp468
a(I301
F-167.0
tp469
a(I301
F-166.0
tp470
a(I301
F-165.0
tp471
a(I302
F-241.0
tp472
a(I302
F-240.0
tp473
a(I302
F-239.0
tp474
a(I302
F-238.0
tp475
a(I302
F-237.0
tp476
a(I302
F-236.0
tp477
a(I302
F-235.0
tp478
a(I302
F-234.0
tp479
a(I302
F-233.0
tp480
a(I302
F-232.0
tp481
a(I302
F-231.0
tp482
a(I302
F-230.0
tp483
a(I302
F-229.0
tp484
a(I302
F-228.0
tp485
a(I302
F-227.0
tp486
a(I302
F-226.0
tp487
a(I302
F-225.0
tp488
a(I302
F-224.0
tp489
a(I302
F-223.0
tp490
a(I302
F-167.0
tp491
a(I302
F-166.0
tp492
a(I302
F-165.0
tp493
a(I303
F-241.0
tp494
a(I303
F-240.0
tp495
a(I303
F-239.0
tp496
a(I303
F-238.0
tp497
a(I303
F-237.0
tp498
a(I303
F-236.0
tp499
a(I303
F-235.0
tp500
a(I303
F-234.0
tp501
a(I303
F-233.0
tp502
a(I303
F-232.0
tp503
a(I303
F-231.0
tp504
a(I303
F-230.0
tp505
a(I303
F-229.0
tp506
a(I303
F-228.0
tp507
a(I303
F-227.0
tp508
a(I303
F-226.0
tp509
a(I303
F-225.0
tp510
a(I303
F-224.0
tp511
a(I303
F-166.0
tp512
a(I303
F-165.0
tp513
a(I304
F-242.0
tp514
a(I304
F-241.0
tp515
a(I304
F-240.0
tp516
a(I304
F-239.0
tp517
a(I304
F-238.0
tp518
a(I304
F-237.0
tp519
a(I304
F-236.0
tp520
a(I304
F-235.0
tp521
a(I304
F-234.0
tp522
a(I304
F-233.0
tp523
a(I304
F-232.0
tp524
a(I304
F-231.0
tp525
a(I304
F-230.0
tp526
a(I304
F-229.0
tp527
a(I304
F-228.0
tp528
a(I304
F-227.0
tp529
a(I304
F-226.0
tp530
a(I304
F-225.0
tp531
a(I304
F-224.0
tp532
a(I304
F-223.0
tp533
a(I304
F-166.0
tp534
a(I304
F-165.0
tp535
a(I304
F-164.0
tp536
a(I305
F-242.0
tp537
a(I305
F-241.0
tp538
a(I305
F-240.0
tp539
a(I305
F-239.0
tp540
a(I305
F-238.0
tp541
a(I305
F-237.0
tp542
a(I305
F-236.0
tp543
a(I305
F-235.0
tp544
a(I305
F-234.0
tp545
a(I305
F-233.0
tp546
a(I305
F-232.0
tp547
a(I305
F-231.0
tp548
a(I305
F-230.0
tp549
a(I305
F-229.0
tp550
a(I305
F-228.0
tp551
a(I305
F-227.0
tp552
a(I305
F-226.0
tp553
a(I305
F-225.0
tp554
a(I305
F-224.0
tp555
a(I305
F-223.0
tp556
a(I305
F-166.0
tp557
a(I305
F-165.0
tp558
a(I305
F-164.0
tp559
a(I306
F-242.0
tp560
a(I306
F-241.0
tp561
a(I306
F-240.0
tp562
a(I306
F-239.0
tp563
a(I306
F-238.0
tp564
a(I306
F-237.0
tp565
a(I306
F-236.0
tp566
a(I306
F-235.0
tp567
a(I306
F-234.0
tp568
a(I306
F-233.0
tp569
a(I306
F-232.0
tp570
a(I306
F-231.0
tp571
a(I306
F-230.0
tp572
a(I306
F-229.0
tp573
a(I306
F-228.0
tp574
a(I306
F-227.0
tp575
a(I306
F-226.0
tp576
a(I306
F-225.0
tp577
a(I306
F-224.0
tp578
a(I306
F-223.0
tp579
a(I306
F-166.0
tp580
a(I306
F-165.0
tp581
a(I306
F-164.0
tp582
a(I307
F-242.0
tp583
a(I307
F-241.0
tp584
a(I307
F-240.0
tp585
a(I307
F-239.0
tp586
a(I307
F-238.0
tp587
a(I307
F-237.0
tp588
a(I307
F-236.0
tp589
a(I307
F-235.0
tp590
a(I307
F-234.0
tp591
a(I307
F-233.0
tp592
a(I307
F-232.0
tp593
a(I307
F-231.0
tp594
a(I307
F-230.0
tp595
a(I307
F-229.0
tp596
a(I307
F-228.0
tp597
a(I307
F-227.0
tp598
a(I307
F-226.0
tp599
a(I307
F-225.0
tp600
a(I307
F-224.0
tp601
a(I307
F-223.0
tp602
a(I307
F-165.0
tp603
a(I307
F-164.0
tp604
a(I308
F-242.0
tp605
a(I308
F-241.0
tp606
a(I308
F-240.0
tp607
a(I308
F-239.0
tp608
a(I308
F-238.0
tp609
a(I308
F-237.0
tp610
a(I308
F-236.0
tp611
a(I308
F-235.0
tp612
a(I308
F-234.0
tp613
a(I308
F-233.0
tp614
a(I308
F-232.0
tp615
a(I308
F-231.0
tp616
a(I308
F-230.0
tp617
a(I308
F-229.0
tp618
a(I308
F-228.0
tp619
a(I308
F-227.0
tp620
a(I308
F-226.0
tp621
a(I308
F-225.0
tp622
a(I308
F-224.0
tp623
a(I308
F-223.0
tp624
a(I308
F-222.0
tp625
a(I308
F-166.0
tp626
a(I308
F-165.0
tp627
a(I308
F-164.0
tp628
a(I309
F-242.0
tp629
a(I309
F-241.0
tp630
a(I309
F-240.0
tp631
a(I309
F-239.0
tp632
a(I309
F-238.0
tp633
a(I309
F-237.0
tp634
a(I309
F-236.0
tp635
a(I309
F-235.0
tp636
a(I309
F-234.0
tp637
a(I309
F-233.0
tp638
a(I309
F-232.0
tp639
a(I309
F-231.0
tp640
a(I309
F-230.0
tp641
a(I309
F-229.0
tp642
a(I309
F-228.0
tp643
a(I309
F-227.0
tp644
a(I309
F-226.0
tp645
a(I309
F-225.0
tp646
a(I309
F-224.0
tp647
a(I309
F-223.0
tp648
a(I309
F-222.0
tp649
a(I309
F-166.0
tp650
a(I309
F-165.0
tp651
a(I309
F-164.0
tp652
a(I310
F-242.0
tp653
a(I310
F-241.0
tp654
a(I310
F-240.0
tp655
a(I310
F-239.0
tp656
a(I310
F-238.0
tp657
a(I310
F-237.0
tp658
a(I310
F-236.0
tp659
a(I310
F-235.0
tp660
a(I310
F-234.0
tp661
a(I310
F-233.0
tp662
a(I310
F-232.0
tp663
a(I310
F-231.0
tp664
a(I310
F-230.0
tp665
a(I310
F-229.0
tp666
a(I310
F-228.0
tp667
a(I310
F-227.0
tp668
a(I310
F-226.0
tp669
a(I310
F-225.0
tp670
a(I310
F-224.0
tp671
a(I310
F-223.0
tp672
a(I310
F-222.0
tp673
a(I310
F-221.0
tp674
a(I310
F-201.0
tp675
a(I310
F-200.0
tp676
a(I310
F-166.0
tp677
a(I310
F-165.0
tp678
a(I310
F-164.0
tp679
a(I311
F-242.0
tp680
a(I311
F-241.0
tp681
a(I311
F-240.0
tp682
a(I311
F-239.0
tp683
a(I311
F-238.0
tp684
a(I311
F-237.0
tp685
a(I311
F-236.0
tp686
a(I311
F-235.0
tp687
a(I311
F-234.0
tp688
a(I311
F-233.0
tp689
a(I311
F-232.0
tp690
a(I311
F-231.0
tp691
a(I311
F-230.0
tp692
a(I311
F-229.0
tp693
a(I311
F-228.0
tp694
a(I311
F-227.0
tp695
a(I311
F-226.0
tp696
a(I311
F-225.0
tp697
a(I311
F-224.0
tp698
a(I311
F-223.0
tp699
a(I311
F-222.0
tp700
a(I311
F-221.0
tp701
a(I311
F-220.0
tp702
a(I311
F-202.0
tp703
a(I311
F-201.0
tp704
a(I311
F-200.0
tp705
a(I311
F-199.0
tp706
a(I311
F-198.0
tp707
a(I311
F-165.0
tp708
a(I311
F-164.0
tp709
a(I312
F-243.0
tp710
a(I312
F-242.0
tp711
a(I312
F-241.0
tp712
a(I312
F-240.0
tp713
a(I312
F-239.0
tp714
a(I312
F-238.0
tp715
a(I312
F-237.0
tp716
a(I312
F-236.0
tp717
a(I312
F-235.0
tp718
a(I312
F-234.0
tp719
a(I312
F-233.0
tp720
a(I312
F-232.0
tp721
a(I312
F-231.0
tp722
a(I312
F-230.0
tp723
a(I312
F-229.0
tp724
a(I312
F-228.0
tp725
a(I312
F-227.0
tp726
a(I312
F-226.0
tp727
a(I312
F-225.0
tp728
a(I312
F-224.0
tp729
a(I312
F-223.0
tp730
a(I312
F-222.0
tp731
a(I312
F-221.0
tp732
a(I312
F-220.0
tp733
a(I312
F-219.0
tp734
a(I312
F-203.0
tp735
a(I312
F-202.0
tp736
a(I312
F-201.0
tp737
a(I312
F-200.0
tp738
a(I312
F-199.0
tp739
a(I312
F-198.0
tp740
a(I312
F-197.0
tp741
a(I312
F-196.0
tp742
a(I312
F-195.0
tp743
a(I312
F-194.0
tp744
a(I312
F-192.0
tp745
a(I312
F-191.0
tp746
a(I312
F-190.0
tp747
a(I312
F-189.0
tp748
a(I312
F-164.0
tp749
a(I312
F-163.0
tp750
a(I313
F-242.0
tp751
a(I313
F-241.0
tp752
a(I313
F-240.0
tp753
a(I313
F-239.0
tp754
a(I313
F-238.0
tp755
a(I313
F-237.0
tp756
a(I313
F-236.0
tp757
a(I313
F-235.0
tp758
a(I313
F-234.0
tp759
a(I313
F-233.0
tp760
a(I313
F-232.0
tp761
a(I313
F-231.0
tp762
a(I313
F-230.0
tp763
a(I313
F-229.0
tp764
a(I313
F-228.0
tp765
a(I313
F-227.0
tp766
a(I313
F-226.0
tp767
a(I313
F-225.0
tp768
a(I313
F-224.0
tp769
a(I313
F-223.0
tp770
a(I313
F-222.0
tp771
a(I313
F-221.0
tp772
a(I313
F-220.0
tp773
a(I313
F-219.0
tp774
a(I313
F-218.0
tp775
a(I313
F-204.0
tp776
a(I313
F-203.0
tp777
a(I313
F-202.0
tp778
a(I313
F-201.0
tp779
a(I313
F-200.0
tp780
a(I313
F-199.0
tp781
a(I313
F-198.0
tp782
a(I313
F-197.0
tp783
a(I313
F-196.0
tp784
a(I313
F-195.0
tp785
a(I313
F-194.0
tp786
a(I313
F-193.0
tp787
a(I313
F-192.0
tp788
a(I313
F-191.0
tp789
a(I313
F-190.0
tp790
a(I313
F-189.0
tp791
a(I314
F-242.0
tp792
a(I314
F-241.0
tp793
a(I314
F-240.0
tp794
a(I314
F-239.0
tp795
a(I314
F-238.0
tp796
a(I314
F-237.0
tp797
a(I314
F-236.0
tp798
a(I314
F-235.0
tp799
a(I314
F-234.0
tp800
a(I314
F-233.0
tp801
a(I314
F-232.0
tp802
a(I314
F-231.0
tp803
a(I314
F-230.0
tp804
a(I314
F-229.0
tp805
a(I314
F-228.0
tp806
a(I314
F-227.0
tp807
a(I314
F-226.0
tp808
a(I314
F-225.0
tp809
a(I314
F-224.0
tp810
a(I314
F-223.0
tp811
a(I314
F-222.0
tp812
a(I314
F-221.0
tp813
a(I314
F-220.0
tp814
a(I314
F-219.0
tp815
a(I314
F-218.0
tp816
a(I314
F-217.0
tp817
a(I314
F-216.0
tp818
a(I314
F-206.0
tp819
a(I314
F-205.0
tp820
a(I314
F-204.0
tp821
a(I314
F-203.0
tp822
a(I314
F-202.0
tp823
a(I314
F-201.0
tp824
a(I314
F-200.0
tp825
a(I314
F-199.0
tp826
a(I314
F-198.0
tp827
a(I314
F-197.0
tp828
a(I314
F-196.0
tp829
a(I314
F-195.0
tp830
a(I314
F-194.0
tp831
a(I314
F-193.0
tp832
a(I314
F-192.0
tp833
a(I314
F-191.0
tp834
a(I314
F-190.0
tp835
a(I314
F-189.0
tp836
a(I314
F-188.0
tp837
a(I315
F-242.0
tp838
a(I315
F-241.0
tp839
a(I315
F-240.0
tp840
a(I315
F-239.0
tp841
a(I315
F-238.0
tp842
a(I315
F-237.0
tp843
a(I315
F-236.0
tp844
a(I315
F-235.0
tp845
a(I315
F-234.0
tp846
a(I315
F-233.0
tp847
a(I315
F-232.0
tp848
a(I315
F-231.0
tp849
a(I315
F-230.0
tp850
a(I315
F-229.0
tp851
a(I315
F-228.0
tp852
a(I315
F-227.0
tp853
a(I315
F-226.0
tp854
a(I315
F-225.0
tp855
a(I315
F-224.0
tp856
a(I315
F-223.0
tp857
a(I315
F-222.0
tp858
a(I315
F-221.0
tp859
a(I315
F-220.0
tp860
a(I315
F-219.0
tp861
a(I315
F-218.0
tp862
a(I315
F-217.0
tp863
a(I315
F-216.0
tp864
a(I315
F-215.0
tp865
a(I315
F-214.0
tp866
a(I315
F-213.0
tp867
a(I315
F-212.0
tp868
a(I315
F-210.0
tp869
a(I315
F-209.0
tp870
a(I315
F-208.0
tp871
a(I315
F-207.0
tp872
a(I315
F-206.0
tp873
a(I315
F-205.0
tp874
a(I315
F-204.0
tp875
a(I315
F-203.0
tp876
a(I315
F-202.0
tp877
a(I315
F-201.0
tp878
a(I315
F-200.0
tp879
a(I315
F-199.0
tp880
a(I315
F-198.0
tp881
a(I315
F-197.0
tp882
a(I315
F-196.0
tp883
a(I315
F-195.0
tp884
a(I315
F-194.0
tp885
a(I315
F-193.0
tp886
a(I315
F-192.0
tp887
a(I315
F-191.0
tp888
a(I315
F-190.0
tp889
a(I315
F-189.0
tp890
a(I315
F-188.0
tp891
a(I315
F-187.0
tp892
a(I316
F-242.0
tp893
a(I316
F-241.0
tp894
a(I316
F-240.0
tp895
a(I316
F-239.0
tp896
a(I316
F-238.0
tp897
a(I316
F-237.0
tp898
a(I316
F-236.0
tp899
a(I316
F-235.0
tp900
a(I316
F-234.0
tp901
a(I316
F-233.0
tp902
a(I316
F-232.0
tp903
a(I316
F-231.0
tp904
a(I316
F-230.0
tp905
a(I316
F-229.0
tp906
a(I316
F-228.0
tp907
a(I316
F-227.0
tp908
a(I316
F-226.0
tp909
a(I316
F-225.0
tp910
a(I316
F-224.0
tp911
a(I316
F-223.0
tp912
a(I316
F-222.0
tp913
a(I316
F-221.0
tp914
a(I316
F-220.0
tp915
a(I316
F-219.0
tp916
a(I316
F-218.0
tp917
a(I316
F-217.0
tp918
a(I316
F-216.0
tp919
a(I316
F-215.0
tp920
a(I316
F-214.0
tp921
a(I316
F-213.0
tp922
a(I316
F-212.0
tp923
a(I316
F-211.0
tp924
a(I316
F-210.0
tp925
a(I316
F-209.0
tp926
a(I316
F-208.0
tp927
a(I316
F-207.0
tp928
a(I316
F-206.0
tp929
a(I316
F-205.0
tp930
a(I316
F-204.0
tp931
a(I316
F-203.0
tp932
a(I316
F-202.0
tp933
a(I316
F-201.0
tp934
a(I316
F-200.0
tp935
a(I316
F-199.0
tp936
a(I316
F-198.0
tp937
a(I316
F-197.0
tp938
a(I316
F-196.0
tp939
a(I316
F-195.0
tp940
a(I316
F-194.0
tp941
a(I316
F-193.0
tp942
a(I316
F-192.0
tp943
a(I316
F-191.0
tp944
a(I316
F-190.0
tp945
a(I316
F-189.0
tp946
a(I316
F-188.0
tp947
a(I316
F-187.0
tp948
a(I316
F-186.0
tp949
a(I317
F-242.0
tp950
a(I317
F-241.0
tp951
a(I317
F-240.0
tp952
a(I317
F-239.0
tp953
a(I317
F-238.0
tp954
a(I317
F-237.0
tp955
a(I317
F-236.0
tp956
a(I317
F-235.0
tp957
a(I317
F-234.0
tp958
a(I317
F-233.0
tp959
a(I317
F-232.0
tp960
a(I317
F-231.0
tp961
a(I317
F-230.0
tp962
a(I317
F-229.0
tp963
a(I317
F-228.0
tp964
a(I317
F-227.0
tp965
a(I317
F-226.0
tp966
a(I317
F-225.0
tp967
a(I317
F-224.0
tp968
a(I317
F-223.0
tp969
a(I317
F-222.0
tp970
a(I317
F-221.0
tp971
a(I317
F-220.0
tp972
a(I317
F-219.0
tp973
a(I317
F-218.0
tp974
a(I317
F-217.0
tp975
a(I317
F-216.0
tp976
a(I317
F-215.0
tp977
a(I317
F-214.0
tp978
a(I317
F-213.0
tp979
a(I317
F-212.0
tp980
a(I317
F-211.0
tp981
a(I317
F-210.0
tp982
a(I317
F-209.0
tp983
a(I317
F-208.0
tp984
a(I317
F-207.0
tp985
a(I317
F-206.0
tp986
a(I317
F-205.0
tp987
a(I317
F-203.0
tp988
a(I317
F-202.0
tp989
a(I317
F-201.0
tp990
a(I317
F-200.0
tp991
a(I317
F-199.0
tp992
a(I317
F-198.0
tp993
a(I317
F-197.0
tp994
a(I317
F-196.0
tp995
a(I317
F-195.0
tp996
a(I317
F-194.0
tp997
a(I317
F-193.0
tp998
a(I317
F-192.0
tp999
a(I317
F-191.0
tp1000
a(I317
F-190.0
tp1001
a(I317
F-189.0
tp1002
a(I317
F-188.0
tp1003
a(I317
F-187.0
tp1004
a(I317
F-186.0
tp1005
a(I317
F-185.0
tp1006
a(I318
F-242.0
tp1007
a(I318
F-241.0
tp1008
a(I318
F-240.0
tp1009
a(I318
F-239.0
tp1010
a(I318
F-238.0
tp1011
a(I318
F-237.0
tp1012
a(I318
F-236.0
tp1013
a(I318
F-235.0
tp1014
a(I318
F-234.0
tp1015
a(I318
F-233.0
tp1016
a(I318
F-232.0
tp1017
a(I318
F-231.0
tp1018
a(I318
F-230.0
tp1019
a(I318
F-229.0
tp1020
a(I318
F-228.0
tp1021
a(I318
F-227.0
tp1022
a(I318
F-226.0
tp1023
a(I318
F-225.0
tp1024
a(I318
F-224.0
tp1025
a(I318
F-223.0
tp1026
a(I318
F-222.0
tp1027
a(I318
F-221.0
tp1028
a(I318
F-220.0
tp1029
a(I318
F-219.0
tp1030
a(I318
F-218.0
tp1031
a(I318
F-217.0
tp1032
a(I318
F-216.0
tp1033
a(I318
F-215.0
tp1034
a(I318
F-214.0
tp1035
a(I318
F-213.0
tp1036
a(I318
F-212.0
tp1037
a(I318
F-211.0
tp1038
a(I318
F-210.0
tp1039
a(I318
F-209.0
tp1040
a(I318
F-199.0
tp1041
a(I318
F-198.0
tp1042
a(I318
F-197.0
tp1043
a(I318
F-196.0
tp1044
a(I318
F-195.0
tp1045
a(I318
F-194.0
tp1046
a(I318
F-193.0
tp1047
a(I318
F-192.0
tp1048
a(I318
F-191.0
tp1049
a(I318
F-190.0
tp1050
a(I318
F-189.0
tp1051
a(I318
F-188.0
tp1052
a(I318
F-187.0
tp1053
a(I318
F-186.0
tp1054
a(I318
F-185.0
tp1055
a(I318
F-184.0
tp1056
a(I319
F-242.0
tp1057
a(I319
F-241.0
tp1058
a(I319
F-240.0
tp1059
a(I319
F-239.0
tp1060
a(I319
F-238.0
tp1061
a(I319
F-237.0
tp1062
a(I319
F-236.0
tp1063
a(I319
F-235.0
tp1064
a(I319
F-234.0
tp1065
a(I319
F-233.0
tp1066
a(I319
F-232.0
tp1067
a(I319
F-231.0
tp1068
a(I319
F-230.0
tp1069
a(I319
F-229.0
tp1070
a(I319
F-228.0
tp1071
a(I319
F-227.0
tp1072
a(I319
F-226.0
tp1073
a(I319
F-225.0
tp1074
a(I319
F-224.0
tp1075
a(I319
F-223.0
tp1076
a(I319
F-222.0
tp1077
a(I319
F-221.0
tp1078
a(I319
F-220.0
tp1079
a(I319
F-219.0
tp1080
a(I319
F-218.0
tp1081
a(I319
F-217.0
tp1082
a(I319
F-216.0
tp1083
a(I319
F-215.0
tp1084
a(I319
F-214.0
tp1085
a(I319
F-213.0
tp1086
a(I319
F-212.0
tp1087
a(I319
F-211.0
tp1088
a(I319
F-197.0
tp1089
a(I319
F-196.0
tp1090
a(I319
F-195.0
tp1091
a(I319
F-194.0
tp1092
a(I319
F-193.0
tp1093
a(I319
F-192.0
tp1094
a(I319
F-191.0
tp1095
a(I319
F-190.0
tp1096
a(I319
F-189.0
tp1097
a(I319
F-188.0
tp1098
a(I319
F-187.0
tp1099
a(I319
F-186.0
tp1100
a(I319
F-185.0
tp1101
a(I319
F-184.0
tp1102
a(I320
F-242.0
tp1103
a(I320
F-241.0
tp1104
a(I320
F-240.0
tp1105
a(I320
F-239.0
tp1106
a(I320
F-238.0
tp1107
a(I320
F-237.0
tp1108
a(I320
F-236.0
tp1109
a(I320
F-235.0
tp1110
a(I320
F-234.0
tp1111
a(I320
F-233.0
tp1112
a(I320
F-232.0
tp1113
a(I320
F-231.0
tp1114
a(I320
F-230.0
tp1115
a(I320
F-229.0
tp1116
a(I320
F-228.0
tp1117
a(I320
F-227.0
tp1118
a(I320
F-226.0
tp1119
a(I320
F-225.0
tp1120
a(I320
F-224.0
tp1121
a(I320
F-223.0
tp1122
a(I320
F-222.0
tp1123
a(I320
F-221.0
tp1124
a(I320
F-220.0
tp1125
a(I320
F-219.0
tp1126
a(I320
F-218.0
tp1127
a(I320
F-217.0
tp1128
a(I320
F-216.0
tp1129
a(I320
F-215.0
tp1130
a(I320
F-214.0
tp1131
a(I320
F-213.0
tp1132
a(I320
F-212.0
tp1133
a(I320
F-196.0
tp1134
a(I320
F-195.0
tp1135
a(I320
F-194.0
tp1136
a(I320
F-193.0
tp1137
a(I320
F-192.0
tp1138
a(I320
F-191.0
tp1139
a(I320
F-190.0
tp1140
a(I320
F-189.0
tp1141
a(I320
F-188.0
tp1142
a(I320
F-187.0
tp1143
a(I320
F-186.0
tp1144
a(I320
F-185.0
tp1145
a(I320
F-184.0
tp1146
a(I321
F-241.0
tp1147
a(I321
F-240.0
tp1148
a(I321
F-239.0
tp1149
a(I321
F-238.0
tp1150
a(I321
F-237.0
tp1151
a(I321
F-236.0
tp1152
a(I321
F-235.0
tp1153
a(I321
F-234.0
tp1154
a(I321
F-233.0
tp1155
a(I321
F-232.0
tp1156
a(I321
F-231.0
tp1157
a(I321
F-230.0
tp1158
a(I321
F-229.0
tp1159
a(I321
F-228.0
tp1160
a(I321
F-227.0
tp1161
a(I321
F-226.0
tp1162
a(I321
F-224.0
tp1163
a(I321
F-223.0
tp1164
a(I321
F-222.0
tp1165
a(I321
F-221.0
tp1166
a(I321
F-220.0
tp1167
a(I321
F-219.0
tp1168
a(I321
F-218.0
tp1169
a(I321
F-217.0
tp1170
a(I321
F-216.0
tp1171
a(I321
F-215.0
tp1172
a(I321
F-214.0
tp1173
a(I321
F-213.0
tp1174
a(I321
F-195.0
tp1175
a(I321
F-194.0
tp1176
a(I321
F-193.0
tp1177
a(I321
F-192.0
tp1178
a(I321
F-191.0
tp1179
a(I321
F-190.0
tp1180
a(I321
F-189.0
tp1181
a(I321
F-188.0
tp1182
a(I321
F-187.0
tp1183
a(I321
F-186.0
tp1184
a(I321
F-185.0
tp1185
a(I322
F-241.0
tp1186
a(I322
F-240.0
tp1187
a(I322
F-239.0
tp1188
a(I322
F-238.0
tp1189
a(I322
F-237.0
tp1190
a(I322
F-236.0
tp1191
a(I322
F-235.0
tp1192
a(I322
F-234.0
tp1193
a(I322
F-233.0
tp1194
a(I322
F-232.0
tp1195
a(I322
F-231.0
tp1196
a(I322
F-230.0
tp1197
a(I322
F-220.0
tp1198
a(I322
F-219.0
tp1199
a(I322
F-218.0
tp1200
a(I322
F-217.0
tp1201
a(I322
F-216.0
tp1202
a(I322
F-215.0
tp1203
a(I322
F-214.0
tp1204
a(I322
F-194.0
tp1205
a(I322
F-193.0
tp1206
a(I322
F-192.0
tp1207
a(I322
F-191.0
tp1208
a(I322
F-190.0
tp1209
a(I322
F-189.0
tp1210
a(I322
F-188.0
tp1211
a(I322
F-187.0
tp1212
a(I322
F-186.0
tp1213
a(I322
F-185.0
tp1214
a(I322
F-184.0
tp1215
a(I323
F-241.0
tp1216
a(I323
F-240.0
tp1217
a(I323
F-239.0
tp1218
a(I323
F-238.0
tp1219
a(I323
F-237.0
tp1220
a(I323
F-236.0
tp1221
a(I323
F-235.0
tp1222
a(I323
F-234.0
tp1223
a(I323
F-233.0
tp1224
a(I323
F-232.0
tp1225
a(I323
F-218.0
tp1226
a(I323
F-217.0
tp1227
a(I323
F-216.0
tp1228
a(I323
F-215.0
tp1229
a(I323
F-193.0
tp1230
a(I323
F-192.0
tp1231
a(I323
F-191.0
tp1232
a(I323
F-190.0
tp1233
a(I323
F-189.0
tp1234
a(I323
F-188.0
tp1235
a(I323
F-187.0
tp1236
a(I323
F-186.0
tp1237
a(I323
F-185.0
tp1238
a(I323
F-184.0
tp1239
a(I324
F-241.0
tp1240
a(I324
F-240.0
tp1241
a(I324
F-239.0
tp1242
a(I324
F-238.0
tp1243
a(I324
F-237.0
tp1244
a(I324
F-236.0
tp1245
a(I324
F-235.0
tp1246
a(I324
F-234.0
tp1247
a(I324
F-233.0
tp1248
a(I324
F-217.0
tp1249
a(I324
F-216.0
tp1250
a(I324
F-215.0
tp1251
a(I324
F-193.0
tp1252
a(I324
F-192.0
tp1253
a(I324
F-191.0
tp1254
a(I324
F-190.0
tp1255
a(I324
F-189.0
tp1256
a(I324
F-188.0
tp1257
a(I324
F-187.0
tp1258
a(I324
F-186.0
tp1259
a(I324
F-185.0
tp1260
a(I324
F-184.0
tp1261
a(I325
F-240.0
tp1262
a(I325
F-239.0
tp1263
a(I325
F-238.0
tp1264
a(I325
F-237.0
tp1265
a(I325
F-236.0
tp1266
a(I325
F-235.0
tp1267
a(I325
F-234.0
tp1268
a(I325
F-216.0
tp1269
a(I325
F-192.0
tp1270
a(I325
F-191.0
tp1271
a(I325
F-190.0
tp1272
a(I325
F-189.0
tp1273
a(I325
F-188.0
tp1274
a(I325
F-187.0
tp1275
a(I325
F-186.0
tp1276
a(I325
F-185.0
tp1277
a(I325
F-184.0
tp1278
a(I326
F-240.0
tp1279
a(I326
F-239.0
tp1280
a(I326
F-238.0
tp1281
a(I326
F-237.0
tp1282
a(I326
F-236.0
tp1283
a(I326
F-235.0
tp1284
a(I326
F-192.0
tp1285
a(I326
F-191.0
tp1286
a(I326
F-190.0
tp1287
a(I326
F-189.0
tp1288
a(I326
F-188.0
tp1289
a(I326
F-187.0
tp1290
a(I326
F-186.0
tp1291
a(I326
F-185.0
tp1292
a(I326
F-184.0
tp1293
a(I326
F-183.0
tp1294
a(I327
F-240.0
tp1295
a(I327
F-239.0
tp1296
a(I327
F-238.0
tp1297
a(I327
F-237.0
tp1298
a(I327
F-236.0
tp1299
a(I327
F-192.0
tp1300
a(I327
F-191.0
tp1301
a(I327
F-190.0
tp1302
a(I327
F-189.0
tp1303
a(I327
F-188.0
tp1304
a(I327
F-187.0
tp1305
a(I327
F-186.0
tp1306
a(I327
F-185.0
tp1307
a(I327
F-184.0
tp1308
a(I327
F-183.0
tp1309
a(I328
F-239.0
tp1310
a(I328
F-238.0
tp1311
a(I328
F-237.0
tp1312
a(I328
F-236.0
tp1313
a(I328
F-192.0
tp1314
a(I328
F-191.0
tp1315
a(I328
F-190.0
tp1316
a(I328
F-189.0
tp1317
a(I328
F-188.0
tp1318
a(I328
F-187.0
tp1319
a(I328
F-186.0
tp1320
a(I328
F-185.0
tp1321
a(I328
F-184.0
tp1322
a(I328
F-183.0
tp1323
a(I328
F-182.0
tp1324
a(I329
F-239.0
tp1325
a(I329
F-238.0
tp1326
a(I329
F-237.0
tp1327
a(I329
F-191.0
tp1328
a(I329
F-190.0
tp1329
a(I329
F-189.0
tp1330
a(I329
F-188.0
tp1331
a(I329
F-187.0
tp1332
a(I329
F-186.0
tp1333
a(I329
F-185.0
tp1334
a(I329
F-184.0
tp1335
a(I329
F-183.0
tp1336
a(I329
F-182.0
tp1337
a(I330
F-238.0
tp1338
a(I330
F-237.0
tp1339
a(I330
F-192.0
tp1340
a(I330
F-191.0
tp1341
a(I330
F-190.0
tp1342
a(I330
F-189.0
tp1343
a(I330
F-188.0
tp1344
a(I330
F-187.0
tp1345
a(I330
F-186.0
tp1346
a(I330
F-185.0
tp1347
a(I330
F-184.0
tp1348
a(I330
F-183.0
tp1349
a(I331
F-238.0
tp1350
a(I331
F-237.0
tp1351
a(I331
F-192.0
tp1352
a(I331
F-191.0
tp1353
a(I331
F-190.0
tp1354
a(I331
F-189.0
tp1355
a(I331
F-188.0
tp1356
a(I331
F-187.0
tp1357
a(I331
F-186.0
tp1358
a(I331
F-185.0
tp1359
a(I331
F-184.0
tp1360
a(I332
F-237.0
tp1361
a(I332
F-192.0
tp1362
a(I332
F-191.0
tp1363
a(I332
F-190.0
tp1364
a(I332
F-189.0
tp1365
a(I332
F-188.0
tp1366
a(I332
F-187.0
tp1367
a(I332
F-186.0
tp1368
a(I332
F-185.0
tp1369
a(I332
F-184.0
tp1370
a(I333
F-192.0
tp1371
a(I333
F-191.0
tp1372
a(I333
F-190.0
tp1373
a(I333
F-189.0
tp1374
a(I333
F-188.0
tp1375
a(I333
F-187.0
tp1376
a(I333
F-186.0
tp1377
a(I333
F-185.0
tp1378
a(I334
F-193.0
tp1379
a(I334
F-192.0
tp1380
a(I334
F-191.0
tp1381
a(I334
F-190.0
tp1382
a(I334
F-189.0
tp1383
a(I334
F-188.0
tp1384
a(I334
F-187.0
tp1385
a(I334
F-186.0
tp1386
a(I334
F-185.0
tp1387
a(I335
F-193.0
tp1388
a(I335
F-192.0
tp1389
a(I335
F-191.0
tp1390
a(I335
F-190.0
tp1391
a(I335
F-189.0
tp1392
a(I335
F-188.0
tp1393
a(I335
F-187.0
tp1394
a(I335
F-186.0
tp1395
a(I335
F-185.0
tp1396
a(I336
F-194.0
tp1397
a(I336
F-193.0
tp1398
a(I336
F-192.0
tp1399
a(I336
F-191.0
tp1400
a(I336
F-190.0
tp1401
a(I336
F-189.0
tp1402
a(I336
F-188.0
tp1403
a(I336
F-187.0
tp1404
a(I336
F-186.0
tp1405
a(I336
F-185.0
tp1406
a(I337
F-213.0
tp1407
a(I337
F-195.0
tp1408
a(I337
F-194.0
tp1409
a(I337
F-193.0
tp1410
a(I337
F-192.0
tp1411
a(I337
F-191.0
tp1412
a(I337
F-190.0
tp1413
a(I337
F-189.0
tp1414
a(I337
F-188.0
tp1415
a(I337
F-187.0
tp1416
a(I337
F-186.0
tp1417
a(I338
F-194.0
tp1418
a(I338
F-193.0
tp1419
a(I338
F-192.0
tp1420
a(I338
F-191.0
tp1421
a(I338
F-190.0
tp1422
a(I338
F-189.0
tp1423
a(I338
F-188.0
tp1424
a(I338
F-187.0
tp1425
a(I338
F-186.0
tp1426
a(I338
F-185.0
tp1427
a(I339
F-193.0
tp1428
a(I339
F-192.0
tp1429
a(I339
F-191.0
tp1430
a(I339
F-190.0
tp1431
a(I339
F-189.0
tp1432
a(I339
F-188.0
tp1433
a(I339
F-187.0
tp1434
a(I339
F-186.0
tp1435
a(I339
F-185.0
tp1436
a(I340
F-193.0
tp1437
a(I340
F-192.0
tp1438
a(I340
F-191.0
tp1439
a(I340
F-190.0
tp1440
a(I340
F-189.0
tp1441
a(I340
F-188.0
tp1442
a(I340
F-187.0
tp1443
a(I340
F-186.0
tp1444
a(I340
F-185.0
tp1445
a(I341
F-192.0
tp1446
a(I341
F-191.0
tp1447
a(I341
F-190.0
tp1448
a(I341
F-189.0
tp1449
a(I341
F-188.0
tp1450
a(I341
F-187.0
tp1451
a(I341
F-186.0
tp1452
a(I341
F-185.0
tp1453
a(I342
F-192.0
tp1454
a(I342
F-191.0
tp1455
a(I342
F-190.0
tp1456
a(I342
F-189.0
tp1457
a(I342
F-188.0
tp1458
a(I342
F-187.0
tp1459
a(I342
F-186.0
tp1460
a(I342
F-185.0
tp1461
a(I342
F-184.0
tp1462
a(I343
F-192.0
tp1463
a(I343
F-191.0
tp1464
a(I343
F-190.0
tp1465
a(I343
F-189.0
tp1466
a(I343
F-188.0
tp1467
a(I343
F-187.0
tp1468
a(I343
F-186.0
tp1469
a(I343
F-185.0
tp1470
a(I343
F-184.0
tp1471
a(I344
F-192.0
tp1472
a(I344
F-191.0
tp1473
a(I344
F-190.0
tp1474
a(I344
F-189.0
tp1475
a(I344
F-188.0
tp1476
a(I344
F-187.0
tp1477
a(I344
F-186.0
tp1478
a(I344
F-185.0
tp1479
a(I344
F-184.0
tp1480
a(I344
F-183.0
tp1481
a(I345
F-191.0
tp1482
a(I345
F-190.0
tp1483
a(I345
F-189.0
tp1484
a(I345
F-188.0
tp1485
a(I345
F-187.0
tp1486
a(I345
F-186.0
tp1487
a(I345
F-185.0
tp1488
a(I345
F-184.0
tp1489
a(I345
F-183.0
tp1490
a(I345
F-182.0
tp1491
a(I346
F-192.0
tp1492
a(I346
F-191.0
tp1493
a(I346
F-190.0
tp1494
a(I346
F-189.0
tp1495
a(I346
F-188.0
tp1496
a(I346
F-187.0
tp1497
a(I346
F-186.0
tp1498
a(I346
F-185.0
tp1499
a(I346
F-184.0
tp1500
a(I346
F-183.0
tp1501
a(I346
F-182.0
tp1502
a(I347
F-192.0
tp1503
a(I347
F-191.0
tp1504
a(I347
F-190.0
tp1505
a(I347
F-189.0
tp1506
a(I347
F-188.0
tp1507
a(I347
F-187.0
tp1508
a(I347
F-186.0
tp1509
a(I347
F-185.0
tp1510
a(I347
F-184.0
tp1511
a(I348
F-192.0
tp1512
a(I348
F-191.0
tp1513
a(I348
F-190.0
tp1514
a(I348
F-189.0
tp1515
a(I348
F-188.0
tp1516
a(I348
F-187.0
tp1517
a(I348
F-186.0
tp1518
a(I349
F-192.0
tp1519
a(I349
F-191.0
tp1520
a(I349
F-190.0
tp1521
a(I349
F-189.0
tp1522
a(I349
F-188.0
tp1523
a(I350
F-193.0
tp1524
a(I350
F-192.0
tp1525
a(I350
F-191.0
tp1526
a.I0
.