(lp0
(I18
I-1
tp1
a(I12
I-19
tp2
a(I24
I19
tp3
a(I47
I7
tp4
a(I7
I9
tp5
a(I39
I-10
tp6
a.I0
.(lp0
(lp1
I0
aI0
aI0
aI0
aI0
aI0
aI0
aI0
aI0
aI0
aI0
aI0
aI0
aI0
aI0
aI0
aI0
aI0
aI0
aI0
aI0
aI0
aI0
aI0
aI0
aI0
aI0
aS'1'
p2
aI0
aI0
aI0
aI0
aI0
aI0
aI0
aI0
aI0
aI0
aI0
aI0
aI0
aI0
aI0
aI0
aI0
aI0
aI0
aI0
aI0
aI0
aI0
aI0
aI0
aI0
aI0
aa(lp3
I0
aI0
aI0
aI0
aI0
aI0
aI0
aI0
aI0
aI0
aI0
aI0
aI0
aI0
aI0
aI0
aI0
aI0
aI0
aI0
ag2
ag2
ag2
ag2
ag2
ag2
ag2
ag2
ag2
ag2
ag2
ag2
ag2
ag2
ag2
aI0
aI0
aI0
aI0
aI0
aI0
aI0
aI0
aI0
aI0
aI0
aI0
aI0
aI0
aI0
aI0
aI0
aI0
aI0
aI0
aa(lp4
I0
aI0
aI0
aI0
aI0
aI0
aI0
aI0
aI0
aI0
aI0
aI0
aI0
aI0
aI0
aI0
aI0
ag2
ag2
ag2
ag2
ag2
ag2
ag2
ag2
ag2
ag2
ag2
ag2
ag2
ag2
ag2
ag2
ag2
ag2
ag2
ag2
ag2
aI0
aI0
aI0
aI0
aI0
aI0
aI0
aI0
aI0
aI0
aI0
aI0
aI0
aI0
aI0
aI0
aI0
aa(lp5
I0
aI0
aI0
aI0
aI0
aI0
aI0
aI0
aI0
aI0
aI0
aI0
aI0
aI0
aI0
ag2
ag2
ag2
ag2
ag2
ag2
ag2
ag2
ag2
ag2
ag2
ag2
ag2
ag2
ag2
ag2
ag2
ag2
ag2
ag2
ag2
ag2
ag2
ag2
ag2
aI0
aI0
aI0
aI0
aI0
aI0
aI0
aI0
aI0
aI0
aI0
aI0
aI0
aI0
aI0
aa(lp6
I0
aI0
aI0
aI0
aI0
aI0
aI0
aI0
aI0
aI0
aI0
aI0
aI0
ag2
ag2
ag2
ag2
ag2
ag2
ag2
ag2
ag2
ag2
ag2
ag2
ag2
ag2
ag2
ag2
ag2
ag2
ag2
ag2
ag2
ag2
ag2
ag2
ag2
ag2
ag2
ag2
ag2
aI0
aI0
aI0
aI0
aI0
aI0
aI0
aI0
aI0
aI0
aI0
aI0
aI0
aa(lp7
I0
aI0
aI0
aI0
aI0
aI0
aI0
aI0
aI0
aI0
aI0
aI0
ag2
ag2
ag2
ag2
ag2
ag2
ag2
ag2
ag2
ag2
ag2
ag2
ag2
ag2
ag2
ag2
ag2
ag2
ag2
ag2
ag2
ag2
ag2
ag2
ag2
ag2
ag2
ag2
ag2
ag2
ag2
aI0
aI0
aI0
aI0
aI0
aI0
aI0
aI0
aI0
aI0
aI0
aI0
aa(lp8
I0
aI0
aI0
aI0
aI0
aI0
aI0
aI0
aI0
aI0
aI0
ag2
ag2
ag2
ag2
ag2
ag2
ag2
ag2
ag2
ag2
ag2
ag2
ag2
ag2
ag2
ag2
ag2
ag2
ag2
ag2
ag2
ag2
ag2
ag2
ag2
ag2
ag2
ag2
ag2
ag2
ag2
ag2
ag2
aI0
aI0
aI0
aI0
aI0
aI0
aI0
aI0
aI0
aI0
aI0
aa(lp9
I0
aI0
aI0
aI0
aI0
aI0
aI0
aI0
aI0
ag2
ag2
ag2
ag2
ag2
ag2
ag2
ag2
ag2
ag2
ag2
ag2
ag2
ag2
ag2
ag2
ag2
ag2
ag2
ag2
ag2
ag2
ag2
ag2
ag2
ag2
ag2
ag2
ag2
ag2
ag2
ag2
ag2
ag2
ag2
ag2
ag2
aI0
aI0
aI0
aI0
aI0
aI0
aI0
aI0
aI0
aa(lp10
I0
aI0
aI0
aI0
aI0
aI0
aI0
aI0
ag2
ag2
ag2
ag2
ag2
ag2
ag2
ag2
ag2
ag2
ag2
ag2
ag2
ag2
ag2
ag2
ag2
ag2
ag2
ag2
ag2
ag2
ag2
ag2
ag2
ag2
ag2
ag2
ag2
ag2
ag2
ag2
ag2
ag2
ag2
ag2
ag2
ag2
ag2
aI0
aI0
aI0
aI0
aI0
aI0
aI0
aI0
aa(lp11
I0
aI0
aI0
aI0
aI0
aI0
aI0
ag2
ag2
ag2
ag2
ag2
ag2
ag2
ag2
ag2
ag2
ag2
ag2
ag2
ag2
ag2
ag2
ag2
ag2
ag2
ag2
ag2
ag2
ag2
ag2
ag2
ag2
ag2
ag2
ag2
ag2
ag2
ag2
ag2
ag2
ag2
ag2
ag2
ag2
ag2
ag2
ag2
aI0
aI0
aI0
aI0
aI0
aI0
aI0
aa(lp12
I0
aI0
aI0
aI0
aI0
aI0
aI0
ag2
ag2
ag2
ag2
ag2
ag2
ag2
ag2
ag2
ag2
ag2
ag2
ag2
ag2
ag2
ag2
ag2
ag2
ag2
ag2
ag2
ag2
ag2
ag2
ag2
ag2
ag2
ag2
ag2
ag2
ag2
ag2
ag2
ag2
ag2
ag2
ag2
ag2
ag2
ag2
ag2
aI0
aI0
aI0
aI0
aI0
aI0
aI0
aa(lp13
I0
aI0
aI0
aI0
aI0
aI0
ag2
ag2
ag2
ag2
ag2
ag2
ag2
ag2
ag2
ag2
ag2
ag2
ag2
ag2
ag2
ag2
ag2
ag2
ag2
ag2
ag2
ag2
ag2
ag2
ag2
ag2
ag2
ag2
ag2
ag2
ag2
ag2
ag2
ag2
ag2
ag2
ag2
ag2
ag2
ag2
ag2
ag2
ag2
aI0
aI0
aI0
aI0
aI0
aI0
aa(lp14
I0
aI0
aI0
aI0
aI0
ag2
ag2
ag2
ag2
ag2
ag2
ag2
ag2
ag2
ag2
ag2
ag2
ag2
ag2
ag2
ag2
ag2
ag2
ag2
ag2
ag2
ag2
ag2
ag2
ag2
ag2
ag2
ag2
ag2
ag2
ag2
ag2
ag2
ag2
ag2
ag2
ag2
ag2
ag2
ag2
ag2
ag2
ag2
ag2
ag2
aI0
aI0
aI0
aI0
aI0
aa(lp15
I0
aI0
aI0
aI0
ag2
ag2
ag2
ag2
ag2
ag2
ag2
ag2
ag2
ag2
ag2
ag2
ag2
ag2
ag2
ag2
ag2
ag2
ag2
ag2
ag2
ag2
ag2
ag2
ag2
ag2
ag2
ag2
ag2
ag2
ag2
ag2
ag2
ag2
ag2
ag2
ag2
ag2
ag2
ag2
ag2
ag2
ag2
ag2
ag2
ag2
ag2
aI0
aI0
aI0
aI0
aa(lp16
I0
aI0
aI0
aI0
ag2
ag2
ag2
ag2
ag2
ag2
ag2
ag2
ag2
ag2
ag2
ag2
ag2
ag2
ag2
ag2
ag2
ag2
ag2
ag2
ag2
ag2
ag2
ag2
ag2
ag2
ag2
ag2
ag2
ag2
ag2
ag2
ag2
ag2
ag2
ag2
ag2
ag2
ag2
ag2
ag2
ag2
ag2
ag2
ag2
ag2
ag2
aI0
aI0
aI0
aI0
aa(lp17
I0
aI0
aI0
ag2
ag2
ag2
ag2
ag2
ag2
ag2
ag2
ag2
ag2
ag2
ag2
ag2
ag2
ag2
ag2
ag2
ag2
ag2
ag2
ag2
ag2
ag2
ag2
ag2
ag2
ag2
ag2
ag2
ag2
ag2
ag2
ag2
ag2
ag2
ag2
ag2
ag2
ag2
ag2
ag2
ag2
ag2
ag2
ag2
ag2
ag2
ag2
ag2
aI0
aI0
aI0
aa(lp18
I0
aI0
aI0
ag2
ag2
ag2
ag2
ag2
ag2
ag2
ag2
ag2
ag2
ag2
ag2
ag2
ag2
ag2
ag2
ag2
ag2
ag2
ag2
ag2
ag2
ag2
ag2
ag2
ag2
ag2
ag2
ag2
ag2
ag2
ag2
ag2
ag2
ag2
ag2
ag2
ag2
ag2
ag2
ag2
ag2
ag2
ag2
ag2
ag2
ag2
ag2
ag2
aI0
aI0
aI0
aa(lp19
I0
aI0
ag2
ag2
ag2
ag2
ag2
ag2
ag2
ag2
ag2
ag2
ag2
ag2
ag2
ag2
ag2
ag2
ag2
ag2
ag2
ag2
ag2
ag2
ag2
ag2
ag2
ag2
ag2
ag2
ag2
ag2
ag2
ag2
ag2
ag2
ag2
ag2
ag2
ag2
ag2
ag2
ag2
ag2
ag2
ag2
ag2
ag2
ag2
ag2
ag2
ag2
ag2
aI0
aI0
aa(lp20
I0
aI0
ag2
ag2
ag2
ag2
ag2
ag2
ag2
ag2
ag2
ag2
ag2
ag2
ag2
ag2
ag2
ag2
ag2
ag2
ag2
ag2
ag2
ag2
ag2
ag2
ag2
ag2
ag2
ag2
ag2
ag2
ag2
ag2
ag2
ag2
ag2
ag2
ag2
ag2
ag2
ag2
ag2
ag2
ag2
ag2
ag2
ag2
ag2
ag2
ag2
ag2
ag2
aI0
aI0
aa(lp21
I0
aI0
ag2
ag2
ag2
ag2
ag2
ag2
ag2
ag2
ag2
ag2
ag2
ag2
ag2
ag2
ag2
ag2
ag2
ag2
ag2
ag2
ag2
ag2
ag2
ag2
ag2
ag2
ag2
ag2
ag2
ag2
ag2
ag2
ag2
ag2
ag2
ag2
ag2
ag2
ag2
ag2
ag2
ag2
ag2
ag2
ag2
ag2
ag2
ag2
ag2
ag2
ag2
aI0
aI0
aa(lp22
I0
ag2
ag2
ag2
ag2
ag2
ag2
ag2
ag2
ag2
ag2
ag2
ag2
ag2
ag2
ag2
ag2
ag2
ag2
ag2
ag2
ag2
ag2
ag2
ag2
ag2
ag2
ag2
ag2
ag2
ag2
ag2
ag2
ag2
ag2
ag2
ag2
ag2
ag2
ag2
ag2
ag2
ag2
ag2
ag2
ag2
ag2
ag2
ag2
ag2
ag2
ag2
ag2
ag2
aI0
aa(lp23
I0
ag2
ag2
ag2
ag2
ag2
ag2
ag2
ag2
ag2
ag2
ag2
ag2
ag2
ag2
ag2
ag2
ag2
ag2
ag2
ag2
ag2
ag2
ag2
ag2
ag2
ag2
ag2
ag2
ag2
ag2
ag2
ag2
ag2
ag2
ag2
ag2
ag2
ag2
ag2
ag2
ag2
ag2
ag2
ag2
ag2
ag2
ag2
ag2
ag2
ag2
ag2
ag2
ag2
aI0
aa(lp24
I0
ag2
ag2
ag2
ag2
ag2
ag2
ag2
ag2
ag2
ag2
ag2
ag2
ag2
ag2
ag2
ag2
ag2
ag2
ag2
ag2
ag2
ag2
ag2
ag2
ag2
ag2
ag2
ag2
ag2
ag2
ag2
ag2
ag2
ag2
ag2
ag2
ag2
ag2
ag2
ag2
ag2
ag2
ag2
ag2
ag2
ag2
ag2
ag2
ag2
ag2
ag2
ag2
ag2
aI0
aa(lp25
I0
ag2
ag2
ag2
ag2
ag2
ag2
ag2
ag2
ag2
ag2
ag2
ag2
ag2
ag2
ag2
ag2
ag2
ag2
ag2
ag2
ag2
ag2
ag2
ag2
ag2
ag2
ag2
ag2
ag2
ag2
ag2
ag2
ag2
ag2
ag2
ag2
ag2
ag2
ag2
ag2
ag2
ag2
ag2
ag2
ag2
ag2
ag2
ag2
ag2
ag2
ag2
ag2
ag2
aI0
aa(lp26
I0
ag2
ag2
ag2
ag2
ag2
ag2
ag2
ag2
ag2
ag2
ag2
ag2
ag2
ag2
ag2
ag2
ag2
ag2
ag2
ag2
ag2
ag2
ag2
ag2
ag2
ag2
ag2
ag2
ag2
ag2
ag2
ag2
ag2
ag2
ag2
ag2
ag2
ag2
ag2
ag2
ag2
ag2
ag2
ag2
ag2
ag2
ag2
ag2
ag2
ag2
ag2
ag2
ag2
aI0
aa(lp27
I0
ag2
ag2
ag2
ag2
ag2
ag2
ag2
ag2
ag2
ag2
ag2
ag2
ag2
ag2
ag2
ag2
ag2
ag2
ag2
ag2
ag2
ag2
ag2
ag2
ag2
ag2
ag2
ag2
ag2
ag2
ag2
ag2
ag2
ag2
ag2
ag2
ag2
ag2
ag2
ag2
ag2
ag2
ag2
ag2
ag2
ag2
ag2
ag2
ag2
ag2
ag2
ag2
ag2
aI0
aa(lp28
I0
ag2
ag2
ag2
ag2
ag2
ag2
ag2
ag2
ag2
ag2
ag2
ag2
ag2
ag2
ag2
ag2
ag2
ag2
ag2
ag2
ag2
ag2
ag2
ag2
ag2
ag2
ag2
ag2
ag2
ag2
ag2
ag2
ag2
ag2
ag2
ag2
ag2
ag2
ag2
ag2
ag2
ag2
ag2
ag2
ag2
ag2
ag2
ag2
ag2
ag2
ag2
ag2
ag2
aI0
aa(lp29
g2
ag2
ag2
ag2
ag2
ag2
ag2
ag2
ag2
ag2
ag2
ag2
ag2
ag2
ag2
ag2
ag2
ag2
ag2
ag2
ag2
ag2
ag2
ag2
ag2
ag2
ag2
ag2
ag2
ag2
ag2
ag2
ag2
ag2
ag2
ag2
ag2
ag2
ag2
ag2
ag2
ag2
ag2
ag2
ag2
ag2
ag2
ag2
ag2
ag2
ag2
ag2
ag2
ag2
ag2
aa(lp30
I0
ag2
ag2
ag2
ag2
ag2
ag2
ag2
ag2
ag2
ag2
ag2
ag2
ag2
ag2
ag2
ag2
ag2
ag2
ag2
ag2
ag2
ag2
ag2
ag2
ag2
ag2
ag2
ag2
ag2
ag2
ag2
ag2
ag2
ag2
ag2
ag2
ag2
ag2
ag2
ag2
ag2
ag2
ag2
ag2
ag2
ag2
ag2
ag2
ag2
ag2
ag2
ag2
ag2
aI0
aa(lp31
I0
ag2
ag2
ag2
ag2
ag2
ag2
ag2
ag2
ag2
ag2
ag2
ag2
ag2
ag2
ag2
ag2
ag2
ag2
ag2
ag2
ag2
ag2
ag2
ag2
ag2
ag2
ag2
ag2
ag2
ag2
ag2
ag2
ag2
ag2
ag2
ag2
ag2
ag2
ag2
ag2
ag2
ag2
ag2
ag2
ag2
ag2
ag2
ag2
ag2
ag2
ag2
ag2
ag2
aI0
aa(lp32
I0
ag2
ag2
ag2
ag2
ag2
ag2
ag2
ag2
ag2
ag2
ag2
ag2
ag2
ag2
ag2
ag2
ag2
ag2
ag2
ag2
ag2
ag2
ag2
ag2
ag2
ag2
ag2
ag2
ag2
ag2
ag2
ag2
ag2
ag2
ag2
ag2
ag2
ag2
ag2
ag2
ag2
ag2
ag2
ag2
ag2
ag2
ag2
ag2
ag2
ag2
ag2
ag2
ag2
aI0
aa(lp33
I0
ag2
ag2
ag2
ag2
ag2
ag2
ag2
ag2
ag2
ag2
ag2
ag2
ag2
ag2
ag2
ag2
ag2
ag2
ag2
ag2
ag2
ag2
ag2
ag2
ag2
ag2
ag2
ag2
ag2
ag2
ag2
ag2
ag2
ag2
ag2
ag2
ag2
ag2
ag2
ag2
ag2
ag2
ag2
ag2
ag2
ag2
ag2
ag2
ag2
ag2
ag2
ag2
ag2
aI0
aa(lp34
I0
ag2
ag2
ag2
ag2
ag2
ag2
ag2
ag2
ag2
ag2
ag2
ag2
ag2
ag2
ag2
ag2
ag2
ag2
ag2
ag2
ag2
ag2
ag2
ag2
ag2
ag2
ag2
ag2
ag2
ag2
ag2
ag2
ag2
ag2
ag2
ag2
ag2
ag2
ag2
ag2
ag2
ag2
ag2
ag2
ag2
ag2
ag2
ag2
ag2
ag2
ag2
ag2
ag2
aI0
aa(lp35
I0
ag2
ag2
ag2
ag2
ag2
ag2
ag2
ag2
ag2
ag2
ag2
ag2
ag2
ag2
ag2
ag2
ag2
ag2
ag2
ag2
ag2
ag2
ag2
ag2
ag2
ag2
ag2
ag2
ag2
ag2
ag2
ag2
ag2
ag2
ag2
ag2
ag2
ag2
ag2
ag2
ag2
ag2
ag2
ag2
ag2
ag2
ag2
ag2
ag2
ag2
ag2
ag2
ag2
aI0
aa(lp36
I0
ag2
ag2
ag2
ag2
ag2
ag2
ag2
ag2
ag2
ag2
ag2
ag2
ag2
ag2
ag2
ag2
ag2
ag2
ag2
ag2
ag2
ag2
ag2
ag2
ag2
ag2
ag2
ag2
ag2
ag2
ag2
ag2
ag2
ag2
ag2
ag2
ag2
ag2
ag2
ag2
ag2
ag2
ag2
ag2
ag2
ag2
ag2
ag2
ag2
ag2
ag2
ag2
ag2
aI0
aa(lp37
I0
aI0
ag2
ag2
ag2
ag2
ag2
ag2
ag2
ag2
ag2
ag2
ag2
ag2
ag2
ag2
ag2
ag2
ag2
ag2
ag2
ag2
ag2
ag2
ag2
ag2
ag2
ag2
ag2
ag2
ag2
ag2
ag2
ag2
ag2
ag2
ag2
ag2
ag2
ag2
ag2
ag2
ag2
ag2
ag2
ag2
ag2
ag2
ag2
ag2
ag2
ag2
ag2
aI0
aI0
aa(lp38
I0
aI0
ag2
ag2
ag2
ag2
ag2
ag2
ag2
ag2
ag2
ag2
ag2
ag2
ag2
ag2
ag2
ag2
ag2
ag2
ag2
ag2
ag2
ag2
ag2
ag2
ag2
ag2
ag2
ag2
ag2
ag2
ag2
ag2
ag2
ag2
ag2
ag2
ag2
ag2
ag2
ag2
ag2
ag2
ag2
ag2
ag2
ag2
ag2
ag2
ag2
ag2
ag2
aI0
aI0
aa(lp39
I0
aI0
ag2
ag2
ag2
ag2
ag2
ag2
ag2
ag2
ag2
ag2
ag2
ag2
ag2
ag2
ag2
ag2
ag2
ag2
ag2
ag2
ag2
ag2
ag2
ag2
ag2
ag2
ag2
ag2
ag2
ag2
ag2
ag2
ag2
ag2
ag2
ag2
ag2
ag2
ag2
ag2
ag2
ag2
ag2
ag2
ag2
ag2
ag2
ag2
ag2
ag2
ag2
aI0
aI0
aa(lp40
I0
aI0
aI0
ag2
ag2
ag2
ag2
ag2
ag2
ag2
ag2
ag2
ag2
ag2
ag2
ag2
ag2
ag2
ag2
ag2
ag2
ag2
ag2
ag2
ag2
ag2
ag2
ag2
ag2
ag2
ag2
ag2
ag2
ag2
ag2
ag2
ag2
ag2
ag2
ag2
ag2
ag2
ag2
ag2
ag2
ag2
ag2
ag2
ag2
ag2
ag2
ag2
aI0
aI0
aI0
aa(lp41
I0
aI0
aI0
ag2
ag2
ag2
ag2
ag2
ag2
ag2
ag2
ag2
ag2
ag2
ag2
ag2
ag2
ag2
ag2
ag2
ag2
ag2
ag2
ag2
ag2
ag2
ag2
ag2
ag2
ag2
ag2
ag2
ag2
ag2
ag2
ag2
ag2
ag2
ag2
ag2
ag2
ag2
ag2
ag2
ag2
ag2
ag2
ag2
ag2
ag2
ag2
ag2
aI0
aI0
aI0
aa(lp42
I0
aI0
aI0
aI0
ag2
ag2
ag2
ag2
ag2
ag2
ag2
ag2
ag2
ag2
ag2
ag2
ag2
ag2
ag2
ag2
ag2
ag2
ag2
ag2
ag2
ag2
ag2
ag2
ag2
ag2
ag2
ag2
ag2
ag2
ag2
ag2
ag2
ag2
ag2
ag2
ag2
ag2
ag2
ag2
ag2
ag2
ag2
ag2
ag2
ag2
ag2
aI0
aI0
aI0
aI0
aa(lp43
I0
aI0
aI0
aI0
ag2
ag2
ag2
ag2
ag2
ag2
ag2
ag2
ag2
ag2
ag2
ag2
ag2
ag2
ag2
ag2
ag2
ag2
ag2
ag2
ag2
ag2
ag2
ag2
ag2
ag2
ag2
ag2
ag2
ag2
ag2
ag2
ag2
ag2
ag2
ag2
ag2
ag2
ag2
ag2
ag2
ag2
ag2
ag2
ag2
ag2
ag2
aI0
aI0
aI0
aI0
aa(lp44
I0
aI0
aI0
aI0
aI0
ag2
ag2
ag2
ag2
ag2
ag2
ag2
ag2
ag2
ag2
ag2
ag2
ag2
ag2
ag2
ag2
ag2
ag2
ag2
ag2
ag2
ag2
ag2
ag2
ag2
ag2
ag2
ag2
ag2
ag2
ag2
ag2
ag2
ag2
ag2
ag2
ag2
ag2
ag2
ag2
ag2
ag2
ag2
ag2
ag2
aI0
aI0
aI0
aI0
aI0
aa(lp45
I0
aI0
aI0
aI0
aI0
aI0
ag2
ag2
ag2
ag2
ag2
ag2
ag2
ag2
ag2
ag2
ag2
ag2
ag2
ag2
ag2
ag2
ag2
ag2
ag2
ag2
ag2
ag2
ag2
ag2
ag2
ag2
ag2
ag2
ag2
ag2
ag2
ag2
ag2
ag2
ag2
ag2
ag2
ag2
ag2
ag2
ag2
ag2
ag2
aI0
aI0
aI0
aI0
aI0
aI0
aa(lp46
I0
aI0
aI0
aI0
aI0
aI0
aI0
ag2
ag2
ag2
ag2
ag2
ag2
ag2
ag2
ag2
ag2
ag2
ag2
ag2
ag2
ag2
ag2
ag2
ag2
ag2
ag2
ag2
ag2
ag2
ag2
ag2
ag2
ag2
ag2
ag2
ag2
ag2
ag2
ag2
ag2
ag2
ag2
ag2
ag2
ag2
ag2
ag2
aI0
aI0
aI0
aI0
aI0
aI0
aI0
aa(lp47
I0
aI0
aI0
aI0
aI0
aI0
aI0
ag2
ag2
ag2
ag2
ag2
ag2
ag2
ag2
ag2
ag2
ag2
ag2
ag2
ag2
ag2
ag2
ag2
ag2
ag2
ag2
ag2
ag2
ag2
ag2
ag2
ag2
ag2
ag2
ag2
ag2
ag2
ag2
ag2
ag2
ag2
ag2
ag2
ag2
ag2
ag2
ag2
aI0
aI0
aI0
aI0
aI0
aI0
aI0
aa(lp48
I0
aI0
aI0
aI0
aI0
aI0
aI0
aI0
ag2
ag2
ag2
ag2
ag2
ag2
ag2
ag2
ag2
ag2
ag2
ag2
ag2
ag2
ag2
ag2
ag2
ag2
ag2
ag2
ag2
ag2
ag2
ag2
ag2
ag2
ag2
ag2
ag2
ag2
ag2
ag2
ag2
ag2
ag2
ag2
ag2
ag2
ag2
aI0
aI0
aI0
aI0
aI0
aI0
aI0
aI0
aa(lp49
I0
aI0
aI0
aI0
aI0
aI0
aI0
aI0
aI0
ag2
ag2
ag2
ag2
ag2
ag2
ag2
ag2
ag2
ag2
ag2
ag2
ag2
ag2
ag2
ag2
ag2
ag2
ag2
ag2
ag2
ag2
ag2
ag2
ag2
ag2
ag2
ag2
ag2
ag2
ag2
ag2
ag2
ag2
ag2
ag2
ag2
aI0
aI0
aI0
aI0
aI0
aI0
aI0
aI0
aI0
aa(lp50
I0
aI0
aI0
aI0
aI0
aI0
aI0
aI0
aI0
aI0
aI0
ag2
ag2
ag2
ag2
ag2
ag2
ag2
ag2
ag2
ag2
ag2
ag2
ag2
ag2
ag2
ag2
ag2
ag2
ag2
ag2
ag2
ag2
ag2
ag2
ag2
ag2
ag2
ag2
ag2
ag2
ag2
ag2
ag2
aI0
aI0
aI0
aI0
aI0
aI0
aI0
aI0
aI0
aI0
aI0
aa(lp51
I0
aI0
aI0
aI0
aI0
aI0
aI0
aI0
aI0
aI0
aI0
aI0
ag2
ag2
ag2
ag2
ag2
ag2
ag2
ag2
ag2
ag2
ag2
ag2
ag2
ag2
ag2
ag2
ag2
ag2
ag2
ag2
ag2
ag2
ag2
ag2
ag2
ag2
ag2
ag2
ag2
ag2
ag2
aI0
aI0
aI0
aI0
aI0
aI0
aI0
aI0
aI0
aI0
aI0
aI0
aa(lp52
I0
aI0
aI0
aI0
aI0
aI0
aI0
aI0
aI0
aI0
aI0
aI0
aI0
ag2
ag2
ag2
ag2
ag2
ag2
ag2
ag2
ag2
ag2
ag2
ag2
ag2
ag2
ag2
ag2
ag2
ag2
ag2
ag2
ag2
ag2
ag2
ag2
ag2
ag2
ag2
ag2
ag2
aI0
aI0
aI0
aI0
aI0
aI0
aI0
aI0
aI0
aI0
aI0
aI0
aI0
aa(lp53
I0
aI0
aI0
aI0
aI0
aI0
aI0
aI0
aI0
aI0
aI0
aI0
aI0
aI0
aI0
ag2
ag2
ag2
ag2
ag2
ag2
ag2
ag2
ag2
ag2
ag2
ag2
ag2
ag2
ag2
ag2
ag2
ag2
ag2
ag2
ag2
ag2
ag2
ag2
ag2
aI0
aI0
aI0
aI0
aI0
aI0
aI0
aI0
aI0
aI0
aI0
aI0
aI0
aI0
aI0
aa(lp54
I0
aI0
aI0
aI0
aI0
aI0
aI0
aI0
aI0
aI0
aI0
aI0
aI0
aI0
aI0
aI0
aI0
ag2
ag2
ag2
ag2
ag2
ag2
ag2
ag2
ag2
ag2
ag2
ag2
ag2
ag2
ag2
ag2
ag2
ag2
ag2
ag2
ag2
aI0
aI0
aI0
aI0
aI0
aI0
aI0
aI0
aI0
aI0
aI0
aI0
aI0
aI0
aI0
aI0
aI0
aa(lp55
I0
aI0
aI0
aI0
aI0
aI0
aI0
aI0
aI0
aI0
aI0
aI0
aI0
aI0
aI0
aI0
aI0
aI0
aI0
aI0
ag2
ag2
ag2
ag2
ag2
ag2
ag2
ag2
ag2
ag2
ag2
ag2
ag2
ag2
ag2
aI0
aI0
aI0
aI0
aI0
aI0
aI0
aI0
aI0
aI0
aI0
aI0
aI0
aI0
aI0
aI0
aI0
aI0
aI0
aI0
aa(lp56
I0
aI0
aI0
aI0
aI0
aI0
aI0
aI0
aI0
aI0
aI0
aI0
aI0
aI0
aI0
aI0
aI0
aI0
aI0
aI0
aI0
aI0
aI0
aI0
aI0
aI0
aI0
ag2
aI0
aI0
aI0
aI0
aI0
aI0
aI0
aI0
aI0
aI0
aI0
aI0
aI0
aI0
aI0
aI0
aI0
aI0
aI0
aI0
aI0
aI0
aI0
aI0
aI0
aI0
aI0
aa.(I31
I0
I27
tp0
.(lp0
(I5
I-7
tp1
a(I5
I-6
tp2
a(I5
I-5
tp3
a(I5
I-4
tp4
a(I5
I-3
tp5
a(I6
I-8
tp6
a(I6
I-7
tp7
a(I6
I-6
tp8
a(I6
I-5
tp9
a(I6
I-4
tp10
a(I6
I-3
tp11
a(I7
I-8
tp12
a(I7
I-7
tp13
a(I7
I-6
tp14
a(I23
I-25
tp15
a(I23
I-24
tp16
a(I23
I-14
tp17
a(I23
I-13
tp18
a(I23
I-12
tp19
a(I24
I-26
tp20
a(I24
I-25
tp21
a(I24
I-24
tp22
a(I24
I-23
tp23
a(I24
I-22
tp24
a(I24
I-21
tp25
a(I24
I-20
tp26
a(I24
I-18
tp27
a(I24
I-17
tp28
a(I24
I-16
tp29
a(I24
I-15
tp30
a(I24
I-14
tp31
a(I24
I-13
tp32
a(I24
I-12
tp33
a(I25
I-26
tp34
a(I25
I-25
tp35
a(I25
I-24
tp36
a(I25
I-23
tp37
a(I25
I-22
tp38
a(I25
I-21
tp39
a(I25
I-20
tp40
a(I25
I-19
tp41
a(I25
I-18
tp42
a(I25
I-17
tp43
a(I25
I-16
tp44
a(I25
I-15
tp45
a(I25
I-14
tp46
a(I25
I-13
tp47
a(I25
I-12
tp48
a(I25
I-11
tp49
a(I26
I-26
tp50
a(I26
I-25
tp51
a(I26
I-24
tp52
a(I26
I-23
tp53
a(I26
I-22
tp54
a(I26
I-21
tp55
a(I26
I-20
tp56
a(I26
I-19
tp57
a(I26
I-18
tp58
a(I26
I-17
tp59
a(I26
I-16
tp60
a(I26
I-15
tp61
a(I26
I-14
tp62
a(I26
I-13
tp63
a(I26
I-12
tp64
a(I26
I-11
tp65
a(I26
I-10
tp66
a(I27
I-26
tp67
a(I27
I-25
tp68
a(I27
I-24
tp69
a(I27
I-23
tp70
a(I27
I-22
tp71
a(I27
I-21
tp72
a(I27
I-20
tp73
a(I27
I-19
tp74
a(I27
I-18
tp75
a(I27
I-17
tp76
a(I27
I-16
tp77
a(I27
I-15
tp78
a(I27
I-14
tp79
a(I27
I-13
tp80
a(I27
I-12
tp81
a(I27
I-11
tp82
a(I27
I-9
tp83
a(I27
I7
tp84
a(I28
I-26
tp85
a(I28
I-25
tp86
a(I28
I-24
tp87
a(I28
I-23
tp88
a(I28
I-22
tp89
a(I28
I-21
tp90
a(I28
I-20
tp91
a(I28
I-19
tp92
a(I28
I-18
tp93
a(I28
I-17
tp94
a(I28
I-16
tp95
a(I28
I-15
tp96
a(I28
I6
tp97
a(I28
I7
tp98
a(I29
I-26
tp99
a(I29
I-25
tp100
a(I29
I-24
tp101
a(I29
I-23
tp102
a(I29
I-22
tp103
a(I29
I-21
tp104
a(I29
I-20
tp105
a(I29
I-19
tp106
a(I29
I-18
tp107
a(I29
I-17
tp108
a(I29
I4
tp109
a(I29
I5
tp110
a(I29
I6
tp111
a(I29
I7
tp112
a(I29
I8
tp113
a(I30
I-26
tp114
a(I30
I-25
tp115
a(I30
I-24
tp116
a(I30
I-23
tp117
a(I30
I-22
tp118
a(I30
I-21
tp119
a(I30
I-20
tp120
a(I30
I-19
tp121
a(I30
I-18
tp122
a(I30
I-2
tp123
a(I30
I0
tp124
a(I30
I1
tp125
a(I30
I2
tp126
a(I30
I3
tp127
a(I30
I4
tp128
a(I30
I5
tp129
a(I30
I6
tp130
a(I30
I7
tp131
a(I30
I8
tp132
a(I31
I-27
tp133
a(I31
I-26
tp134
a(I31
I-25
tp135
a(I31
I-24
tp136
a(I31
I-23
tp137
a(I31
I-22
tp138
a(I31
I-21
tp139
a(I31
I-20
tp140
a(I31
I-19
tp141
a(I31
I-1
tp142
a(I31
I0
tp143
a(I31
I1
tp144
a(I31
I2
tp145
a(I31
I3
tp146
a(I31
I4
tp147
a(I31
I5
tp148
a(I31
I6
tp149
a(I31
I7
tp150
a(I31
I8
tp151
a(I31
I9
tp152
a(I32
I-26
tp153
a(I32
I-25
tp154
a(I32
I-24
tp155
a(I32
I-23
tp156
a(I32
I-22
tp157
a(I32
I-21
tp158
a(I32
I-20
tp159
a(I32
I0
tp160
a(I32
I1
tp161
a(I32
I2
tp162
a(I32
I3
tp163
a(I32
I4
tp164
a(I32
I5
tp165
a(I32
I6
tp166
a(I32
I7
tp167
a(I32
I8
tp168
a(I32
I9
tp169
a(I32
I10
tp170
a(I33
I-26
tp171
a(I33
I-25
tp172
a(I33
I-24
tp173
a(I33
I-23
tp174
a(I33
I-22
tp175
a(I33
I-21
tp176
a(I33
I1
tp177
a(I33
I2
tp178
a(I33
I3
tp179
a(I33
I4
tp180
a(I33
I5
tp181
a(I33
I6
tp182
a(I33
I7
tp183
a(I33
I8
tp184
a(I33
I9
tp185
a(I33
I10
tp186
a(I33
I11
tp187
a(I34
I-26
tp188
a(I34
I-25
tp189
a(I34
I-24
tp190
a(I34
I-23
tp191
a(I34
I-22
tp192
a(I34
I-21
tp193
a(I34
I1
tp194
a(I34
I2
tp195
a(I34
I3
tp196
a(I34
I4
tp197
a(I34
I5
tp198
a(I34
I6
tp199
a(I34
I7
tp200
a(I34
I8
tp201
a(I34
I9
tp202
a(I34
I10
tp203
a(I34
I11
tp204
a(I34
I12
tp205
a(I34
I26
tp206
a(I35
I-26
tp207
a(I35
I-25
tp208
a(I35
I-24
tp209
a(I35
I-23
tp210
a(I35
I-22
tp211
a(I35
I2
tp212
a(I35
I3
tp213
a(I35
I4
tp214
a(I35
I5
tp215
a(I35
I6
tp216
a(I35
I8
tp217
a(I35
I9
tp218
a(I35
I10
tp219
a(I35
I11
tp220
a(I35
I12
tp221
a(I35
I13
tp222
a(I35
I14
tp223
a(I35
I24
tp224
a(I35
I25
tp225
a(I35
I26
tp226
a(I36
I-26
tp227
a(I36
I-25
tp228
a(I36
I-24
tp229
a(I36
I-23
tp230
a(I36
I-22
tp231
a(I36
I2
tp232
a(I36
I12
tp233
a(I36
I13
tp234
a(I36
I14
tp235
a(I36
I15
tp236
a(I36
I16
tp237
a(I36
I17
tp238
a(I36
I18
tp239
a(I36
I20
tp240
a(I36
I21
tp241
a(I36
I22
tp242
a(I36
I23
tp243
a(I36
I24
tp244
a(I36
I25
tp245
a(I36
I26
tp246
a(I37
I-26
tp247
a(I37
I-25
tp248
a(I37
I-24
tp249
a(I37
I-23
tp250
a(I37
I-22
tp251
a(I37
I14
tp252
a(I37
I15
tp253
a(I37
I16
tp254
a(I37
I17
tp255
a(I37
I18
tp256
a(I37
I19
tp257
a(I37
I20
tp258
a(I37
I21
tp259
a(I37
I22
tp260
a(I37
I23
tp261
a(I37
I24
tp262
a(I37
I25
tp263
a(I37
I26
tp264
a(I38
I-26
tp265
a(I38
I-25
tp266
a(I38
I-24
tp267
a(I38
I-23
tp268
a(I38
I-22
tp269
a(I38
I15
tp270
a(I38
I16
tp271
a(I38
I17
tp272
a(I38
I18
tp273
a(I38
I19
tp274
a(I38
I20
tp275
a(I38
I21
tp276
a(I38
I22
tp277
a(I38
I23
tp278
a(I38
I24
tp279
a(I38
I25
tp280
a(I38
I26
tp281
a(I39
I-25
tp282
a(I39
I-24
tp283
a(I39
I-23
tp284
a(I39
I16
tp285
a(I39
I17
tp286
a(I39
I18
tp287
a(I39
I19
tp288
a(I39
I20
tp289
a(I39
I21
tp290
a(I39
I22
tp291
a(I39
I23
tp292
a(I39
I24
tp293
a(I39
I25
tp294
a(I40
I-25
tp295
a(I40
I-24
tp296
a(I40
I-23
tp297
a(I40
I-22
tp298
a(I40
I17
tp299
a(I40
I18
tp300
a(I40
I19
tp301
a(I40
I20
tp302
a(I40
I21
tp303
a(I40
I22
tp304
a(I40
I23
tp305
a(I40
I24
tp306
a(I40
I25
tp307
a(I41
I-25
tp308
a(I41
I-24
tp309
a(I41
I-23
tp310
a(I41
I-22
tp311
a(I41
I18
tp312
a(I41
I19
tp313
a(I41
I20
tp314
a(I41
I21
tp315
a(I41
I22
tp316
a(I41
I23
tp317
a(I41
I24
tp318
a(I41
I25
tp319
a(I42
I-24
tp320
a(I42
I-23
tp321
a(I42
I-22
tp322
a(I42
I18
tp323
a(I42
I19
tp324
a(I42
I20
tp325
a(I42
I21
tp326
a(I42
I22
tp327
a(I42
I23
tp328
a(I42
I24
tp329
a(I43
I-24
tp330
a(I43
I-23
tp331
a(I43
I-22
tp332
a(I43
I19
tp333
a(I43
I20
tp334
a(I43
I21
tp335
a(I43
I22
tp336
a(I43
I23
tp337
a(I43
I24
tp338
a(I44
I-23
tp339
a(I44
I-22
tp340
a(I44
I-21
tp341
a(I44
I19
tp342
a(I44
I20
tp343
a(I44
I21
tp344
a(I44
I22
tp345
a(I44
I23
tp346
a(I45
I-23
tp347
a(I45
I-22
tp348
a(I45
I-21
tp349
a(I45
I19
tp350
a(I45
I20
tp351
a(I45
I21
tp352
a(I45
I22
tp353
a(I45
I23
tp354
a(I46
I-22
tp355
a(I46
I-21
tp356
a(I46
I-20
tp357
a(I46
I19
tp358
a(I46
I20
tp359
a(I46
I21
tp360
a(I46
I22
tp361
a(I47
I-21
tp362
a(I47
I-20
tp363
a(I47
I-19
tp364
a(I47
I20
tp365
a(I47
I21
tp366
a(I48
I-20
tp367
a(I48
I-19
tp368
a(I48
I-18
tp369
a(I48
I19
tp370
a(I48
I20
tp371
a(I49
I-20
tp372
a(I49
I-19
tp373
a(I49
I-18
tp374
a(I49
I-17
tp375
a(I49
I19
tp376
a(I49
I20
tp377
a(I50
I-19
tp378
a(I50
I-18
tp379
a(I50
I-17
tp380
a(I50
I-16
tp381
a(I50
I-15
tp382
a(I50
I-5
tp383
a(I50
I19
tp384
a(I51
I-18
tp385
a(I51
I-17
tp386
a(I51
I-16
tp387
a(I51
I-15
tp388
a(I51
I-14
tp389
a(I51
I-13
tp390
a(I51
I-12
tp391
a(I51
I-11
tp392
a(I51
I-9
tp393
a(I51
I-8
tp394
a(I51
I-7
tp395
a(I51
I-6
tp396
a(I51
I-5
tp397
a(I52
I-16
tp398
a(I52
I-15
tp399
a(I52
I-14
tp400
a(I52
I-13
tp401
a(I52
I-12
tp402
a(I52
I-11
tp403
a(I52
I-10
tp404
a(I52
I-9
tp405
a(I52
I-8
tp406
a(I52
I-7
tp407
a(I52
I-6
tp408
a(I52
I-5
tp409
a(I52
I-4
tp410
a(I53
I-15
tp411
a(I53
I-14
tp412
a(I53
I-13
tp413
a(I53
I-12
tp414
a(I53
I-11
tp415
a(I53
I-10
tp416
a(I53
I-9
tp417
a(I53
I-8
tp418
a(I53
I-7
tp419
a(I53
I-6
tp420
a(I53
I-5
tp421
a(I53
I-4
tp422
a(I54
I-14
tp423
a(I54
I-13
tp424
a(I54
I-12
tp425
a(I54
I-11
tp426
a(I54
I-10
tp427
a(I54
I-9
tp428
a(I54
I-8
tp429
a(I54
I-7
tp430
a(I54
I-6
tp431
a(I54
I-5
tp432
a(I54
I-4
tp433
a(I54
I-3
tp434
a(I55
I-12
tp435
a(I55
I-11
tp436
a(I55
I-10
tp437
a(I55
I-9
tp438
a(I55
I-8
tp439
a(I55
I-7
tp440
a(I55
I-6
tp441
a(I55
I-5
tp442
a(I55
I-4
tp443
a(I55
I-3
tp444
a(I55
I-2
tp445
a(I56
I-10
tp446
a(I56
I-9
tp447
a(I56
I-8
tp448
a(I56
I-7
tp449
a(I56
I-6
tp450
a(I56
I-5
tp451
a(I56
I-4
tp452
a(I56
I-3
tp453
a(I56
I-2
tp454
a(I56
I-1
tp455
a(I57
I-7
tp456
a(I57
I-6
tp457
a(I57
I-5
tp458
a(I57
I-4
tp459
a(I57
I-3
tp460
a(I57
I-2
tp461
a(I57
I-1
tp462
a(I57
I0
tp463
a(I58
I0
tp464
a.I0
.